
F:\PHD\Arduino_Projects\SailBoardPolit\SailBoardPolit_v1.0\SailBoardPolit.ino.hex:     file format ihex


Disassembly of section .sec1:

00000000 <.sec1>:
       0:	0c 94 6b 01 	jmp	0x2d6	;  0x2d6
       4:	0c 94 5a 08 	jmp	0x10b4	;  0x10b4
       8:	0c 94 2f 08 	jmp	0x105e	;  0x105e
       c:	0c 94 04 08 	jmp	0x1008	;  0x1008
      10:	0c 94 d9 07 	jmp	0xfb2	;  0xfb2
      14:	0c 94 ae 07 	jmp	0xf5c	;  0xf5c
      18:	0c 94 83 07 	jmp	0xf06	;  0xf06
      1c:	0c 94 58 07 	jmp	0xeb0	;  0xeb0
      20:	0c 94 2d 07 	jmp	0xe5a	;  0xe5a
      24:	0c 94 9c 01 	jmp	0x338	;  0x338
      28:	0c 94 9c 01 	jmp	0x338	;  0x338
      2c:	0c 94 9c 01 	jmp	0x338	;  0x338
      30:	0c 94 9c 01 	jmp	0x338	;  0x338
      34:	0c 94 9c 01 	jmp	0x338	;  0x338
      38:	0c 94 9c 01 	jmp	0x338	;  0x338
      3c:	0c 94 9c 01 	jmp	0x338	;  0x338
      40:	0c 94 9c 01 	jmp	0x338	;  0x338
      44:	0c 94 cf 09 	jmp	0x139e	;  0x139e
      48:	0c 94 9c 01 	jmp	0x338	;  0x338
      4c:	0c 94 9c 01 	jmp	0x338	;  0x338
      50:	0c 94 9c 01 	jmp	0x338	;  0x338
      54:	0c 94 9c 01 	jmp	0x338	;  0x338
      58:	0c 94 9c 01 	jmp	0x338	;  0x338
      5c:	0c 94 e3 06 	jmp	0xdc6	;  0xdc6
      60:	0c 94 9c 01 	jmp	0x338	;  0x338
      64:	0c 94 0f 09 	jmp	0x121e	;  0x121e
      68:	0c 94 e5 08 	jmp	0x11ca	;  0x11ca
      6c:	0c 94 9c 01 	jmp	0x338	;  0x338
      70:	0c 94 9c 01 	jmp	0x338	;  0x338
      74:	0c 94 9c 01 	jmp	0x338	;  0x338
      78:	0c 94 9c 01 	jmp	0x338	;  0x338
      7c:	0c 94 9c 01 	jmp	0x338	;  0x338
      80:	0c 94 a1 09 	jmp	0x1342	;  0x1342
      84:	0c 94 9c 01 	jmp	0x338	;  0x338
      88:	0c 94 9c 01 	jmp	0x338	;  0x338
      8c:	0c 94 9c 01 	jmp	0x338	;  0x338
      90:	0c 94 af 08 	jmp	0x115e	;  0x115e
      94:	0c 94 85 08 	jmp	0x110a	;  0x110a
      98:	0c 94 9c 01 	jmp	0x338	;  0x338
      9c:	0c 94 9c 01 	jmp	0x338	;  0x338
      a0:	0c 94 9c 01 	jmp	0x338	;  0x338
      a4:	0c 94 9c 01 	jmp	0x338	;  0x338
      a8:	0c 94 73 09 	jmp	0x12e6	;  0x12e6
      ac:	0c 94 9c 01 	jmp	0x338	;  0x338
      b0:	0c 94 9c 01 	jmp	0x338	;  0x338
      b4:	0c 94 9c 01 	jmp	0x338	;  0x338
      b8:	0c 94 9c 01 	jmp	0x338	;  0x338
      bc:	0c 94 45 09 	jmp	0x128a	;  0x128a
      c0:	0c 94 9c 01 	jmp	0x338	;  0x338
      c4:	0c 94 9c 01 	jmp	0x338	;  0x338
      c8:	0c 94 9c 01 	jmp	0x338	;  0x338
      cc:	0c 94 9c 01 	jmp	0x338	;  0x338
      d0:	0c 94 9c 01 	jmp	0x338	;  0x338
      d4:	0c 94 9c 01 	jmp	0x338	;  0x338
      d8:	0c 94 9c 01 	jmp	0x338	;  0x338
      dc:	0c 94 9c 01 	jmp	0x338	;  0x338
      e0:	0c 94 9c 01 	jmp	0x338	;  0x338
      e4:	08 4a       	sbci	r16, 0xA8	; 168
      e6:	d7 3b       	cpi	r29, 0xB7	; 183
      e8:	3b ce       	rjmp	.-906    	;  0xfffffd60
      ea:	01 6e       	ori	r16, 0xE1	; 225
      ec:	84 bc       	out	0x24, r8	; 36
      ee:	bf fd       	.word	0xfdbf	; ????
      f0:	c1 2f       	mov	r28, r17
      f2:	3d 6c       	ori	r19, 0xCD	; 205
      f4:	74 31       	cpi	r23, 0x14	; 20
      f6:	9a bd       	out	0x2a, r25	; 42
      f8:	56 83       	std	Z+6, r21	; 0x06
      fa:	3d da       	rcall	.-2950   	;  0xfffff576
      fc:	3d 00       	.word	0x003d	; ????
      fe:	c7 7f       	andi	r28, 0xF7	; 247
     100:	11 be       	out	0x31, r1	; 49
     102:	d9 e4       	ldi	r29, 0x49	; 73
     104:	bb 4c       	sbci	r27, 0xCB	; 203
     106:	3e 91       	ld	r19, -X
     108:	6b aa       	std	Y+51, r6	; 0x33
     10a:	aa be       	out	0x3a, r10	; 58
     10c:	00 00       	nop
     10e:	00 80       	ld	r0, Z
     110:	3f 05       	cpc	r19, r15
     112:	a8 4c       	sbci	r26, 0xC8	; 200
     114:	cd b2       	in	r12, 0x1d	; 29
     116:	d4 4e       	sbci	r29, 0xE4	; 228
     118:	b9 38       	cpi	r27, 0x89	; 137
     11a:	36 a9       	ldd	r19, Z+54	; 0x36
     11c:	02 0c       	add	r0, r2
     11e:	50 b9       	out	0x00, r21	; 0
     120:	91 86       	std	Z+9, r9	; 0x09
     122:	88 08       	sbc	r8, r8
     124:	3c a6       	std	Y+44, r3	; 0x2c
     126:	aa aa       	std	Y+50, r10	; 0x32
     128:	2a be       	out	0x3a, r2	; 58
     12a:	00 00       	nop
     12c:	00 80       	ld	r0, Z
     12e:	3f 00       	.word	0x003f	; ????
     130:	0c 94 3d 04 	jmp	0x87a	;  0x87a
     134:	0c 94 8c 04 	jmp	0x918	;  0x918
     138:	0c 94 3d 02 	jmp	0x47a	;  0x47a
     13c:	0c 94 25 02 	jmp	0x44a	;  0x44a
     140:	0c 94 d9 02 	jmp	0x5b2	;  0x5b2
     144:	0c 94 7a 03 	jmp	0x6f4	;  0x6f4
     148:	0c 94 2a 03 	jmp	0x654	;  0x654
     14c:	0c 94 47 02 	jmp	0x48e	;  0x48e
     150:	0c 94 7e 04 	jmp	0x8fc	;  0x8fc
     154:	0c 94 33 02 	jmp	0x466	;  0x466
     158:	0c 94 14 02 	jmp	0x428	;  0x428
     15c:	0c 94 16 03 	jmp	0x62c	;  0x62c
     160:	0c 94 21 02 	jmp	0x442	;  0x442
     164:	0c 94 07 03 	jmp	0x60e	;  0x60e
     168:	0c 94 18 02 	jmp	0x430	;  0x430
     16c:	0c 94 42 0a 	jmp	0x1484	;  0x1484
     170:	0c 94 4b 02 	jmp	0x496	;  0x496
     174:	0c 94 2f 02 	jmp	0x45e	;  0x45e
     178:	0c 94 63 04 	jmp	0x8c6	;  0x8c6
     17c:	0c 94 39 02 	jmp	0x472	;  0x472
     180:	0c 94 10 02 	jmp	0x420	;  0x420
     184:	0c 94 f5 01 	jmp	0x3ea	;  0x3ea
     188:	0c 94 c7 03 	jmp	0x78e	;  0x78e
     18c:	0c 94 3c 04 	jmp	0x878	;  0x878
     190:	0c 94 da 02 	jmp	0x5b4	;  0x5b4
     194:	0c 94 1b 02 	jmp	0x436	;  0x436
     198:	0c 94 38 03 	jmp	0x670	;  0x670
     19c:	0c 94 0c 02 	jmp	0x418	;  0x418
     1a0:	0c 94 dd 04 	jmp	0x9ba	;  0x9ba
     1a4:	0c 94 c7 04 	jmp	0x98e	;  0x98e
     1a8:	0c 94 fa 01 	jmp	0x3f4	;  0x3f4
     1ac:	0c 94 2b 02 	jmp	0x456	;  0x456
     1b0:	0c 94 41 02 	jmp	0x482	;  0x482
     1b4:	00 00       	nop
     1b6:	20 00       	.word	0x0020	; ????
     1b8:	23 00       	.word	0x0023	; ????
     1ba:	26 00       	.word	0x0026	; ????
     1bc:	29 00       	.word	0x0029	; ????
     1be:	2c 00       	.word	0x002c	; ????
     1c0:	2f 00       	.word	0x002f	; ????
     1c2:	32 00       	.word	0x0032	; ????
     1c4:	00 01       	movw	r0, r0
     1c6:	00 00       	nop
     1c8:	03 01       	movw	r0, r6
     1ca:	06 01       	movw	r0, r12
     1cc:	09 01       	movw	r0, r18
     1ce:	00 00       	nop
     1d0:	21 00       	.word	0x0021	; ????
     1d2:	24 00       	.word	0x0024	; ????
     1d4:	27 00       	.word	0x0027	; ????
     1d6:	2a 00       	.word	0x002a	; ????
     1d8:	2d 00       	.word	0x002d	; ????
     1da:	30 00       	.word	0x0030	; ????
     1dc:	33 00       	.word	0x0033	; ????
     1de:	01 01       	movw	r0, r2
     1e0:	00 00       	nop
     1e2:	04 01       	movw	r0, r8
     1e4:	07 01       	movw	r0, r14
     1e6:	0a 01       	movw	r0, r20
     1e8:	00 00       	nop
     1ea:	22 00       	.word	0x0022	; ????
     1ec:	25 00       	.word	0x0025	; ????
     1ee:	28 00       	.word	0x0028	; ????
     1f0:	2b 00       	.word	0x002b	; ????
     1f2:	2e 00       	.word	0x002e	; ????
     1f4:	31 00       	.word	0x0031	; ????
     1f6:	34 00       	.word	0x0034	; ????
     1f8:	02 01       	movw	r0, r4
     1fa:	00 00       	nop
     1fc:	05 01       	movw	r0, r10
     1fe:	08 01       	movw	r0, r16
     200:	0b 01       	movw	r0, r22
     202:	05 05       	cpc	r16, r5
     204:	05 05       	cpc	r16, r5
     206:	07 05       	cpc	r16, r7
     208:	08 08       	sbc	r0, r8
     20a:	08 08       	sbc	r0, r8
     20c:	02 02       	muls	r16, r18
     20e:	02 02       	muls	r16, r18
     210:	0a 0a       	sbc	r0, r26
     212:	08 08       	sbc	r0, r8
     214:	04 04       	cpc	r0, r4
     216:	04 04       	cpc	r0, r4
     218:	01 01       	movw	r0, r2
     21a:	01 01       	movw	r0, r2
     21c:	01 01       	movw	r0, r2
     21e:	01 01       	movw	r0, r2
     220:	03 03       	mulsu	r16, r19
     222:	03 03       	mulsu	r16, r19
     224:	03 03       	mulsu	r16, r19
     226:	03 03       	mulsu	r16, r19
     228:	04 07       	cpc	r16, r20
     22a:	07 07       	cpc	r16, r23
     22c:	0c 0c       	add	r0, r12
     22e:	0c 0c       	add	r0, r12
     230:	0c 0c       	add	r0, r12
     232:	0c 0c       	add	r0, r12
     234:	02 02       	muls	r16, r18
     236:	02 02       	muls	r16, r18
     238:	06 06       	cpc	r0, r22
     23a:	06 06       	cpc	r0, r22
     23c:	06 06       	cpc	r0, r22
     23e:	06 06       	cpc	r0, r22
     240:	0b 0b       	sbc	r16, r27
     242:	0b 0b       	sbc	r16, r27
     244:	0b 0b       	sbc	r16, r27
     246:	0b 0b       	sbc	r16, r27
     248:	01 02       	muls	r16, r17
     24a:	10 20       	and	r1, r0
     24c:	20 08       	sbc	r2, r0
     24e:	08 10       	cpse	r0, r8
     250:	20 40       	sbci	r18, 0x00	; 0
     252:	10 20       	and	r1, r0
     254:	40 80       	ld	r4, Z
     256:	02 01       	movw	r0, r4
     258:	02 01       	movw	r0, r4
     25a:	08 04       	cpc	r0, r8
     25c:	02 01       	movw	r0, r4
     25e:	01 02       	muls	r16, r17
     260:	04 08       	sbc	r0, r4
     262:	10 20       	and	r1, r0
     264:	40 80       	ld	r4, Z
     266:	80 40       	sbci	r24, 0x00	; 0
     268:	20 10       	cpse	r2, r0
     26a:	08 04       	cpc	r0, r8
     26c:	02 01       	movw	r0, r4
     26e:	80 04       	cpc	r8, r0
     270:	02 01       	movw	r0, r4
     272:	80 40       	sbci	r24, 0x00	; 0
     274:	20 10       	cpse	r2, r0
     276:	08 04       	cpc	r0, r8
     278:	02 01       	movw	r0, r4
     27a:	08 04       	cpc	r0, r8
     27c:	02 01       	movw	r0, r4
     27e:	01 02       	muls	r16, r17
     280:	04 08       	sbc	r0, r4
     282:	10 20       	and	r1, r0
     284:	40 80       	ld	r4, Z
     286:	01 02       	muls	r16, r17
     288:	04 08       	sbc	r0, r4
     28a:	10 20       	and	r1, r0
     28c:	40 80       	ld	r4, Z
     28e:	00 00       	nop
     290:	0a 0b       	sbc	r16, r26
     292:	02 09       	sbc	r16, r2
     294:	0c 0d       	add	r16, r12
     296:	0e 08       	sbc	r0, r14
     298:	07 03       	mulsu	r16, r23
     29a:	04 01       	movw	r0, r8
	...
     2b8:	00 00       	nop
     2ba:	12 11       	cpse	r17, r2
     2bc:	10 00       	.word	0x0010	; ????
	...
     2d2:	00 00       	nop
     2d4:	42 0a       	sbc	r4, r18
     2d6:	11 24       	eor	r1, r1
     2d8:	1f be       	out	0x3f, r1	; 63
     2da:	cf ef       	ldi	r28, 0xFF	; 255
     2dc:	d1 e2       	ldi	r29, 0x21	; 33
     2de:	de bf       	out	0x3e, r29	; 62
     2e0:	cd bf       	out	0x3d, r28	; 61
     2e2:	00 e0       	ldi	r16, 0x00	; 0
     2e4:	0c bf       	out	0x3c, r16	; 60
     2e6:	12 e0       	ldi	r17, 0x02	; 2
     2e8:	a0 e0       	ldi	r26, 0x00	; 0
     2ea:	b2 e0       	ldi	r27, 0x02	; 2
     2ec:	ee e6       	ldi	r30, 0x6E	; 110
     2ee:	fb e2       	ldi	r31, 0x2B	; 43
     2f0:	00 e0       	ldi	r16, 0x00	; 0
     2f2:	0b bf       	out	0x3b, r16	; 59
     2f4:	02 c0       	rjmp	.+4      	;  0x2fa
     2f6:	07 90       	elpm	r0, Z+
     2f8:	0d 92       	st	X+, r0
     2fa:	ac 39       	cpi	r26, 0x9C	; 156
     2fc:	b1 07       	cpc	r27, r17
     2fe:	d9 f7       	brne	.-10     	;  0x2f6
     300:	25 e0       	ldi	r18, 0x05	; 5
     302:	ac e9       	ldi	r26, 0x9C	; 156
     304:	b2 e0       	ldi	r27, 0x02	; 2
     306:	01 c0       	rjmp	.+2      	;  0x30a
     308:	1d 92       	st	X+, r1
     30a:	a6 35       	cpi	r26, 0x56	; 86
     30c:	b2 07       	cpc	r27, r18
     30e:	e1 f7       	brne	.-8      	;  0x308
     310:	11 e0       	ldi	r17, 0x01	; 1
     312:	cb e6       	ldi	r28, 0x6B	; 107
     314:	d1 e0       	ldi	r29, 0x01	; 1
     316:	00 e0       	ldi	r16, 0x00	; 0
     318:	06 c0       	rjmp	.+12     	;  0x326
     31a:	21 97       	sbiw	r28, 0x01	; 1
     31c:	01 09       	sbc	r16, r1
     31e:	80 2f       	mov	r24, r16
     320:	fe 01       	movw	r30, r28
     322:	0e 94 18 15 	call	0x2a30	;  0x2a30
     326:	ca 36       	cpi	r28, 0x6A	; 106
     328:	d1 07       	cpc	r29, r17
     32a:	80 e0       	ldi	r24, 0x00	; 0
     32c:	08 07       	cpc	r16, r24
     32e:	a9 f7       	brne	.-22     	;  0x31a
     330:	0e 94 19 0c 	call	0x1832	;  0x1832
     334:	0c 94 b5 15 	jmp	0x2b6a	;  0x2b6a
     338:	0c 94 00 00 	jmp	0	;  0x0
     33c:	fc 01       	movw	r30, r24
     33e:	a0 89       	ldd	r26, Z+16	; 0x10
     340:	b1 89       	ldd	r27, Z+17	; 0x11
     342:	82 e0       	ldi	r24, 0x02	; 2
     344:	8c 93       	st	X, r24
     346:	a4 85       	ldd	r26, Z+12	; 0x0c
     348:	b5 85       	ldd	r27, Z+13	; 0x0d
     34a:	1c 92       	st	X, r1
     34c:	a6 85       	ldd	r26, Z+14	; 0x0e
     34e:	b7 85       	ldd	r27, Z+15	; 0x0f
     350:	8f ec       	ldi	r24, 0xCF	; 207
     352:	8c 93       	st	X, r24
     354:	10 8e       	std	Z+24, r1	; 0x18
     356:	a4 89       	ldd	r26, Z+20	; 0x14
     358:	b5 89       	ldd	r27, Z+21	; 0x15
     35a:	86 e0       	ldi	r24, 0x06	; 6
     35c:	8c 93       	st	X, r24
     35e:	a2 89       	ldd	r26, Z+18	; 0x12
     360:	b3 89       	ldd	r27, Z+19	; 0x13
     362:	8c 91       	ld	r24, X
     364:	80 61       	ori	r24, 0x10	; 16
     366:	8c 93       	st	X, r24
     368:	a2 89       	ldd	r26, Z+18	; 0x12
     36a:	b3 89       	ldd	r27, Z+19	; 0x13
     36c:	8c 91       	ld	r24, X
     36e:	88 60       	ori	r24, 0x08	; 8
     370:	8c 93       	st	X, r24
     372:	a2 89       	ldd	r26, Z+18	; 0x12
     374:	b3 89       	ldd	r27, Z+19	; 0x13
     376:	8c 91       	ld	r24, X
     378:	80 68       	ori	r24, 0x80	; 128
     37a:	8c 93       	st	X, r24
     37c:	02 88       	ldd	r0, Z+18	; 0x12
     37e:	f3 89       	ldd	r31, Z+19	; 0x13
     380:	e0 2d       	mov	r30, r0
     382:	80 81       	ld	r24, Z
     384:	8f 7d       	andi	r24, 0xDF	; 223
     386:	80 83       	st	Z, r24
     388:	08 95       	ret
     38a:	28 2f       	mov	r18, r24
     38c:	30 e0       	ldi	r19, 0x00	; 0
     38e:	f9 01       	movw	r30, r18
     390:	e2 57       	subi	r30, 0x72	; 114
     392:	fd 4f       	sbci	r31, 0xFD	; 253
     394:	94 91       	lpm	r25, Z
     396:	f9 01       	movw	r30, r18
     398:	e8 5b       	subi	r30, 0xB8	; 184
     39a:	fd 4f       	sbci	r31, 0xFD	; 253
     39c:	44 91       	lpm	r20, Z
     39e:	2e 5f       	subi	r18, 0xFE	; 254
     3a0:	3d 4f       	sbci	r19, 0xFD	; 253
     3a2:	f9 01       	movw	r30, r18
     3a4:	24 91       	lpm	r18, Z
     3a6:	22 23       	and	r18, r18
     3a8:	09 f4       	brne	.+2      	;  0x3ac
     3aa:	35 c0       	rjmp	.+106    	;  0x416
     3ac:	99 23       	and	r25, r25
     3ae:	11 f1       	breq	.+68     	;  0x3f4
     3b0:	91 50       	subi	r25, 0x01	; 1
     3b2:	92 31       	cpi	r25, 0x12	; 18
     3b4:	f8 f4       	brcc	.+62     	;  0x3f4
     3b6:	e9 2f       	mov	r30, r25
     3b8:	f0 e0       	ldi	r31, 0x00	; 0
     3ba:	88 27       	eor	r24, r24
     3bc:	ed 51       	subi	r30, 0x1D	; 29
     3be:	fe 4f       	sbci	r31, 0xFE	; 254
     3c0:	8f 4f       	sbci	r24, 0xFF	; 255
     3c2:	0c 94 18 15 	jmp	0x2a30	;  0x2a30
     3c6:	14 02       	muls	r17, r20
     3c8:	18 02       	muls	r17, r24
     3ca:	f5 01       	movw	r30, r10
     3cc:	0c 02       	muls	r16, r28
     3ce:	10 02       	muls	r17, r16
     3d0:	fa 01       	movw	r30, r20
     3d2:	1b 02       	muls	r17, r27
     3d4:	21 02       	muls	r18, r17
     3d6:	25 02       	muls	r18, r21
     3d8:	2b 02       	muls	r18, r27
     3da:	2f 02       	muls	r18, r31
     3dc:	33 02       	muls	r19, r19
     3de:	39 02       	muls	r19, r25
     3e0:	3d 02       	muls	r19, r29
     3e2:	fa 01       	movw	r30, r20
     3e4:	41 02       	muls	r20, r17
     3e6:	47 02       	muls	r20, r23
     3e8:	4b 02       	muls	r20, r27
     3ea:	80 91 80 00 	lds	r24, 0x0080	;  0x800080
     3ee:	8f 77       	andi	r24, 0x7F	; 127
     3f0:	80 93 80 00 	sts	0x0080, r24	;  0x800080
     3f4:	e2 2f       	mov	r30, r18
     3f6:	f0 e0       	ldi	r31, 0x00	; 0
     3f8:	ee 0f       	add	r30, r30
     3fa:	ff 1f       	adc	r31, r31
     3fc:	e8 51       	subi	r30, 0x18	; 24
     3fe:	fe 4f       	sbci	r31, 0xFE	; 254
     400:	a5 91       	lpm	r26, Z+
     402:	b4 91       	lpm	r27, Z
     404:	8f b7       	in	r24, 0x3f	; 63
     406:	f8 94       	cli
     408:	ec 91       	ld	r30, X
     40a:	61 11       	cpse	r22, r1
     40c:	48 c0       	rjmp	.+144    	;  0x49e
     40e:	40 95       	com	r20
     410:	4e 23       	and	r20, r30
     412:	4c 93       	st	X, r20
     414:	8f bf       	out	0x3f, r24	; 63
     416:	08 95       	ret
     418:	80 91 80 00 	lds	r24, 0x0080	;  0x800080
     41c:	8f 7d       	andi	r24, 0xDF	; 223
     41e:	e8 cf       	rjmp	.-48     	;  0x3f0
     420:	80 91 80 00 	lds	r24, 0x0080	;  0x800080
     424:	87 7f       	andi	r24, 0xF7	; 247
     426:	e4 cf       	rjmp	.-56     	;  0x3f0
     428:	84 b5       	in	r24, 0x24	; 36
     42a:	8f 77       	andi	r24, 0x7F	; 127
     42c:	84 bd       	out	0x24, r24	; 36
     42e:	e2 cf       	rjmp	.-60     	;  0x3f4
     430:	84 b5       	in	r24, 0x24	; 36
     432:	8f 7d       	andi	r24, 0xDF	; 223
     434:	fb cf       	rjmp	.-10     	;  0x42c
     436:	80 91 b0 00 	lds	r24, 0x00B0	;  0x8000b0
     43a:	8f 77       	andi	r24, 0x7F	; 127
     43c:	80 93 b0 00 	sts	0x00B0, r24	;  0x8000b0
     440:	d9 cf       	rjmp	.-78     	;  0x3f4
     442:	80 91 b0 00 	lds	r24, 0x00B0	;  0x8000b0
     446:	8f 7d       	andi	r24, 0xDF	; 223
     448:	f9 cf       	rjmp	.-14     	;  0x43c
     44a:	80 91 90 00 	lds	r24, 0x0090	;  0x800090
     44e:	8f 77       	andi	r24, 0x7F	; 127
     450:	80 93 90 00 	sts	0x0090, r24	;  0x800090
     454:	cf cf       	rjmp	.-98     	;  0x3f4
     456:	80 91 90 00 	lds	r24, 0x0090	;  0x800090
     45a:	8f 7d       	andi	r24, 0xDF	; 223
     45c:	f9 cf       	rjmp	.-14     	;  0x450
     45e:	80 91 90 00 	lds	r24, 0x0090	;  0x800090
     462:	87 7f       	andi	r24, 0xF7	; 247
     464:	f5 cf       	rjmp	.-22     	;  0x450
     466:	80 91 a0 00 	lds	r24, 0x00A0	;  0x8000a0
     46a:	8f 77       	andi	r24, 0x7F	; 127
     46c:	80 93 a0 00 	sts	0x00A0, r24	;  0x8000a0
     470:	c1 cf       	rjmp	.-126    	;  0x3f4
     472:	80 91 a0 00 	lds	r24, 0x00A0	;  0x8000a0
     476:	8f 7d       	andi	r24, 0xDF	; 223
     478:	f9 cf       	rjmp	.-14     	;  0x46c
     47a:	80 91 a0 00 	lds	r24, 0x00A0	;  0x8000a0
     47e:	87 7f       	andi	r24, 0xF7	; 247
     480:	f5 cf       	rjmp	.-22     	;  0x46c
     482:	80 91 20 01 	lds	r24, 0x0120	;  0x800120
     486:	8f 77       	andi	r24, 0x7F	; 127
     488:	80 93 20 01 	sts	0x0120, r24	;  0x800120
     48c:	b3 cf       	rjmp	.-154    	;  0x3f4
     48e:	80 91 20 01 	lds	r24, 0x0120	;  0x800120
     492:	8f 7d       	andi	r24, 0xDF	; 223
     494:	f9 cf       	rjmp	.-14     	;  0x488
     496:	80 91 20 01 	lds	r24, 0x0120	;  0x800120
     49a:	87 7f       	andi	r24, 0xF7	; 247
     49c:	f5 cf       	rjmp	.-22     	;  0x488
     49e:	4e 2b       	or	r20, r30
     4a0:	b8 cf       	rjmp	.-144    	;  0x412
     4a2:	cf 93       	push	r28
     4a4:	df 93       	push	r29
     4a6:	90 e0       	ldi	r25, 0x00	; 0
     4a8:	fc 01       	movw	r30, r24
     4aa:	e8 5b       	subi	r30, 0xB8	; 184
     4ac:	fd 4f       	sbci	r31, 0xFD	; 253
     4ae:	24 91       	lpm	r18, Z
     4b0:	8e 5f       	subi	r24, 0xFE	; 254
     4b2:	9d 4f       	sbci	r25, 0xFD	; 253
     4b4:	fc 01       	movw	r30, r24
     4b6:	84 91       	lpm	r24, Z
     4b8:	88 23       	and	r24, r24
     4ba:	d1 f0       	breq	.+52     	;  0x4f0
     4bc:	90 e0       	ldi	r25, 0x00	; 0
     4be:	88 0f       	add	r24, r24
     4c0:	99 1f       	adc	r25, r25
     4c2:	fc 01       	movw	r30, r24
     4c4:	e2 53       	subi	r30, 0x32	; 50
     4c6:	fe 4f       	sbci	r31, 0xFE	; 254
     4c8:	a5 91       	lpm	r26, Z+
     4ca:	b4 91       	lpm	r27, Z
     4cc:	fc 01       	movw	r30, r24
     4ce:	e8 51       	subi	r30, 0x18	; 24
     4d0:	fe 4f       	sbci	r31, 0xFE	; 254
     4d2:	c5 91       	lpm	r28, Z+
     4d4:	d4 91       	lpm	r29, Z
     4d6:	61 11       	cpse	r22, r1
     4d8:	0e c0       	rjmp	.+28     	;  0x4f6
     4da:	9f b7       	in	r25, 0x3f	; 63
     4dc:	f8 94       	cli
     4de:	8c 91       	ld	r24, X
     4e0:	e2 2f       	mov	r30, r18
     4e2:	e0 95       	com	r30
     4e4:	8e 23       	and	r24, r30
     4e6:	8c 93       	st	X, r24
     4e8:	28 81       	ld	r18, Y
     4ea:	e2 23       	and	r30, r18
     4ec:	e8 83       	st	Y, r30
     4ee:	9f bf       	out	0x3f, r25	; 63
     4f0:	df 91       	pop	r29
     4f2:	cf 91       	pop	r28
     4f4:	08 95       	ret
     4f6:	8f b7       	in	r24, 0x3f	; 63
     4f8:	f8 94       	cli
     4fa:	ec 91       	ld	r30, X
     4fc:	e2 2b       	or	r30, r18
     4fe:	ec 93       	st	X, r30
     500:	8f bf       	out	0x3f, r24	; 63
     502:	f6 cf       	rjmp	.-20     	;  0x4f0
     504:	3f b7       	in	r19, 0x3f	; 63
     506:	f8 94       	cli
     508:	80 91 a6 02 	lds	r24, 0x02A6	;  0x8002a6
     50c:	90 91 a7 02 	lds	r25, 0x02A7	;  0x8002a7
     510:	a0 91 a8 02 	lds	r26, 0x02A8	;  0x8002a8
     514:	b0 91 a9 02 	lds	r27, 0x02A9	;  0x8002a9
     518:	26 b5       	in	r18, 0x26	; 38
     51a:	a8 9b       	sbis	0x15, 0	; 21
     51c:	05 c0       	rjmp	.+10     	;  0x528
     51e:	2f 3f       	cpi	r18, 0xFF	; 255
     520:	19 f0       	breq	.+6      	;  0x528
     522:	01 96       	adiw	r24, 0x01	; 1
     524:	a1 1d       	adc	r26, r1
     526:	b1 1d       	adc	r27, r1
     528:	3f bf       	out	0x3f, r19	; 63
     52a:	ba 2f       	mov	r27, r26
     52c:	a9 2f       	mov	r26, r25
     52e:	98 2f       	mov	r25, r24
     530:	88 27       	eor	r24, r24
     532:	bc 01       	movw	r22, r24
     534:	cd 01       	movw	r24, r26
     536:	62 0f       	add	r22, r18
     538:	71 1d       	adc	r23, r1
     53a:	81 1d       	adc	r24, r1
     53c:	91 1d       	adc	r25, r1
     53e:	42 e0       	ldi	r20, 0x02	; 2
     540:	66 0f       	add	r22, r22
     542:	77 1f       	adc	r23, r23
     544:	88 1f       	adc	r24, r24
     546:	99 1f       	adc	r25, r25
     548:	4a 95       	dec	r20
     54a:	d1 f7       	brne	.-12     	;  0x540
     54c:	08 95       	ret
     54e:	8f 92       	push	r8
     550:	9f 92       	push	r9
     552:	af 92       	push	r10
     554:	bf 92       	push	r11
     556:	cf 92       	push	r12
     558:	df 92       	push	r13
     55a:	ef 92       	push	r14
     55c:	ff 92       	push	r15
     55e:	4b 01       	movw	r8, r22
     560:	5c 01       	movw	r10, r24
     562:	0e 94 82 02 	call	0x504	;  0x504
     566:	6b 01       	movw	r12, r22
     568:	7c 01       	movw	r14, r24
     56a:	0e 94 82 02 	call	0x504	;  0x504
     56e:	6c 19       	sub	r22, r12
     570:	7d 09       	sbc	r23, r13
     572:	8e 09       	sbc	r24, r14
     574:	9f 09       	sbc	r25, r15
     576:	68 3e       	cpi	r22, 0xE8	; 232
     578:	73 40       	sbci	r23, 0x03	; 3
     57a:	81 05       	cpc	r24, r1
     57c:	91 05       	cpc	r25, r1
     57e:	a8 f3       	brcs	.-22     	;  0x56a
     580:	21 e0       	ldi	r18, 0x01	; 1
     582:	82 1a       	sub	r8, r18
     584:	91 08       	sbc	r9, r1
     586:	a1 08       	sbc	r10, r1
     588:	b1 08       	sbc	r11, r1
     58a:	88 ee       	ldi	r24, 0xE8	; 232
     58c:	c8 0e       	add	r12, r24
     58e:	83 e0       	ldi	r24, 0x03	; 3
     590:	d8 1e       	adc	r13, r24
     592:	e1 1c       	adc	r14, r1
     594:	f1 1c       	adc	r15, r1
     596:	81 14       	cp	r8, r1
     598:	91 04       	cpc	r9, r1
     59a:	a1 04       	cpc	r10, r1
     59c:	b1 04       	cpc	r11, r1
     59e:	29 f7       	brne	.-54     	;  0x56a
     5a0:	ff 90       	pop	r15
     5a2:	ef 90       	pop	r14
     5a4:	df 90       	pop	r13
     5a6:	cf 90       	pop	r12
     5a8:	bf 90       	pop	r11
     5aa:	af 90       	pop	r10
     5ac:	9f 90       	pop	r9
     5ae:	8f 90       	pop	r8
     5b0:	08 95       	ret
     5b2:	08 95       	ret
     5b4:	af 92       	push	r10
     5b6:	bf 92       	push	r11
     5b8:	cf 92       	push	r12
     5ba:	df 92       	push	r13
     5bc:	ef 92       	push	r14
     5be:	ff 92       	push	r15
     5c0:	0f 93       	push	r16
     5c2:	1f 93       	push	r17
     5c4:	cf 93       	push	r28
     5c6:	df 93       	push	r29
     5c8:	6c 01       	movw	r12, r24
     5ca:	7b 01       	movw	r14, r22
     5cc:	8b 01       	movw	r16, r22
     5ce:	04 0f       	add	r16, r20
     5d0:	15 1f       	adc	r17, r21
     5d2:	eb 01       	movw	r28, r22
     5d4:	5e 01       	movw	r10, r28
     5d6:	ae 18       	sub	r10, r14
     5d8:	bf 08       	sbc	r11, r15
     5da:	c0 17       	cp	r28, r16
     5dc:	d1 07       	cpc	r29, r17
     5de:	59 f0       	breq	.+22     	;  0x5f6
     5e0:	69 91       	ld	r22, Y+
     5e2:	d6 01       	movw	r26, r12
     5e4:	ed 91       	ld	r30, X+
     5e6:	fc 91       	ld	r31, X
     5e8:	01 90       	ld	r0, Z+
     5ea:	f0 81       	ld	r31, Z
     5ec:	e0 2d       	mov	r30, r0
     5ee:	c6 01       	movw	r24, r12
     5f0:	19 95       	eicall
     5f2:	89 2b       	or	r24, r25
     5f4:	79 f7       	brne	.-34     	;  0x5d4
     5f6:	c5 01       	movw	r24, r10
     5f8:	df 91       	pop	r29
     5fa:	cf 91       	pop	r28
     5fc:	1f 91       	pop	r17
     5fe:	0f 91       	pop	r16
     600:	ff 90       	pop	r15
     602:	ef 90       	pop	r14
     604:	df 90       	pop	r13
     606:	cf 90       	pop	r12
     608:	bf 90       	pop	r11
     60a:	af 90       	pop	r10
     60c:	08 95       	ret
     60e:	fc 01       	movw	r30, r24
     610:	53 8d       	ldd	r21, Z+27	; 0x1b
     612:	44 8d       	ldd	r20, Z+28	; 0x1c
     614:	25 2f       	mov	r18, r21
     616:	30 e0       	ldi	r19, 0x00	; 0
     618:	84 2f       	mov	r24, r20
     61a:	90 e0       	ldi	r25, 0x00	; 0
     61c:	82 1b       	sub	r24, r18
     61e:	93 0b       	sbc	r25, r19
     620:	54 17       	cp	r21, r20
     622:	10 f0       	brcs	.+4      	;  0x628
     624:	cf 96       	adiw	r24, 0x3f	; 63
     626:	08 95       	ret
     628:	01 97       	sbiw	r24, 0x01	; 1
     62a:	08 95       	ret
     62c:	fc 01       	movw	r30, r24
     62e:	91 8d       	ldd	r25, Z+25	; 0x19
     630:	82 8d       	ldd	r24, Z+26	; 0x1a
     632:	98 17       	cp	r25, r24
     634:	61 f0       	breq	.+24     	;  0x64e
     636:	a2 8d       	ldd	r26, Z+26	; 0x1a
     638:	ae 0f       	add	r26, r30
     63a:	bf 2f       	mov	r27, r31
     63c:	b1 1d       	adc	r27, r1
     63e:	5d 96       	adiw	r26, 0x1d	; 29
     640:	8c 91       	ld	r24, X
     642:	92 8d       	ldd	r25, Z+26	; 0x1a
     644:	9f 5f       	subi	r25, 0xFF	; 255
     646:	9f 73       	andi	r25, 0x3F	; 63
     648:	92 8f       	std	Z+26, r25	; 0x1a
     64a:	90 e0       	ldi	r25, 0x00	; 0
     64c:	08 95       	ret
     64e:	8f ef       	ldi	r24, 0xFF	; 255
     650:	9f ef       	ldi	r25, 0xFF	; 255
     652:	08 95       	ret
     654:	fc 01       	movw	r30, r24
     656:	91 8d       	ldd	r25, Z+25	; 0x19
     658:	82 8d       	ldd	r24, Z+26	; 0x1a
     65a:	98 17       	cp	r25, r24
     65c:	31 f0       	breq	.+12     	;  0x66a
     65e:	82 8d       	ldd	r24, Z+26	; 0x1a
     660:	e8 0f       	add	r30, r24
     662:	f1 1d       	adc	r31, r1
     664:	85 8d       	ldd	r24, Z+29	; 0x1d
     666:	90 e0       	ldi	r25, 0x00	; 0
     668:	08 95       	ret
     66a:	8f ef       	ldi	r24, 0xFF	; 255
     66c:	9f ef       	ldi	r25, 0xFF	; 255
     66e:	08 95       	ret
     670:	fc 01       	movw	r30, r24
     672:	91 8d       	ldd	r25, Z+25	; 0x19
     674:	22 8d       	ldd	r18, Z+26	; 0x1a
     676:	89 2f       	mov	r24, r25
     678:	90 e0       	ldi	r25, 0x00	; 0
     67a:	80 5c       	subi	r24, 0xC0	; 192
     67c:	9f 4f       	sbci	r25, 0xFF	; 255
     67e:	82 1b       	sub	r24, r18
     680:	91 09       	sbc	r25, r1
     682:	8f 73       	andi	r24, 0x3F	; 63
     684:	99 27       	eor	r25, r25
     686:	08 95       	ret
     688:	8a ea       	ldi	r24, 0xAA	; 170
     68a:	92 e0       	ldi	r25, 0x02	; 2
     68c:	0e 94 38 03 	call	0x670	;  0x670
     690:	21 e0       	ldi	r18, 0x01	; 1
     692:	89 2b       	or	r24, r25
     694:	09 f4       	brne	.+2      	;  0x698
     696:	20 e0       	ldi	r18, 0x00	; 0
     698:	82 2f       	mov	r24, r18
     69a:	08 95       	ret
     69c:	87 e4       	ldi	r24, 0x47	; 71
     69e:	93 e0       	ldi	r25, 0x03	; 3
     6a0:	0e 94 38 03 	call	0x670	;  0x670
     6a4:	21 e0       	ldi	r18, 0x01	; 1
     6a6:	89 2b       	or	r24, r25
     6a8:	09 f4       	brne	.+2      	;  0x6ac
     6aa:	20 e0       	ldi	r18, 0x00	; 0
     6ac:	82 2f       	mov	r24, r18
     6ae:	08 95       	ret
     6b0:	fc 01       	movw	r30, r24
     6b2:	a4 8d       	ldd	r26, Z+28	; 0x1c
     6b4:	a8 0f       	add	r26, r24
     6b6:	b9 2f       	mov	r27, r25
     6b8:	b1 1d       	adc	r27, r1
     6ba:	a3 5a       	subi	r26, 0xA3	; 163
     6bc:	bf 4f       	sbci	r27, 0xFF	; 255
     6be:	2c 91       	ld	r18, X
     6c0:	84 8d       	ldd	r24, Z+28	; 0x1c
     6c2:	90 e0       	ldi	r25, 0x00	; 0
     6c4:	01 96       	adiw	r24, 0x01	; 1
     6c6:	8f 73       	andi	r24, 0x3F	; 63
     6c8:	99 27       	eor	r25, r25
     6ca:	84 8f       	std	Z+28, r24	; 0x1c
     6cc:	a6 89       	ldd	r26, Z+22	; 0x16
     6ce:	b7 89       	ldd	r27, Z+23	; 0x17
     6d0:	2c 93       	st	X, r18
     6d2:	a0 89       	ldd	r26, Z+16	; 0x10
     6d4:	b1 89       	ldd	r27, Z+17	; 0x11
     6d6:	8c 91       	ld	r24, X
     6d8:	83 70       	andi	r24, 0x03	; 3
     6da:	80 64       	ori	r24, 0x40	; 64
     6dc:	8c 93       	st	X, r24
     6de:	93 8d       	ldd	r25, Z+27	; 0x1b
     6e0:	84 8d       	ldd	r24, Z+28	; 0x1c
     6e2:	98 13       	cpse	r25, r24
     6e4:	06 c0       	rjmp	.+12     	;  0x6f2
     6e6:	02 88       	ldd	r0, Z+18	; 0x12
     6e8:	f3 89       	ldd	r31, Z+19	; 0x13
     6ea:	e0 2d       	mov	r30, r0
     6ec:	80 81       	ld	r24, Z
     6ee:	8f 7d       	andi	r24, 0xDF	; 223
     6f0:	80 83       	st	Z, r24
     6f2:	08 95       	ret
     6f4:	ef 92       	push	r14
     6f6:	ff 92       	push	r15
     6f8:	0f 93       	push	r16
     6fa:	1f 93       	push	r17
     6fc:	cf 93       	push	r28
     6fe:	df 93       	push	r29
     700:	ec 01       	movw	r28, r24
     702:	81 e0       	ldi	r24, 0x01	; 1
     704:	88 8f       	std	Y+24, r24	; 0x18
     706:	9b 8d       	ldd	r25, Y+27	; 0x1b
     708:	8c 8d       	ldd	r24, Y+28	; 0x1c
     70a:	98 13       	cpse	r25, r24
     70c:	1a c0       	rjmp	.+52     	;  0x742
     70e:	e8 89       	ldd	r30, Y+16	; 0x10
     710:	f9 89       	ldd	r31, Y+17	; 0x11
     712:	80 81       	ld	r24, Z
     714:	85 ff       	sbrs	r24, 5
     716:	15 c0       	rjmp	.+42     	;  0x742
     718:	9f b7       	in	r25, 0x3f	; 63
     71a:	f8 94       	cli
     71c:	ee 89       	ldd	r30, Y+22	; 0x16
     71e:	ff 89       	ldd	r31, Y+23	; 0x17
     720:	60 83       	st	Z, r22
     722:	e8 89       	ldd	r30, Y+16	; 0x10
     724:	f9 89       	ldd	r31, Y+17	; 0x11
     726:	80 81       	ld	r24, Z
     728:	83 70       	andi	r24, 0x03	; 3
     72a:	80 64       	ori	r24, 0x40	; 64
     72c:	80 83       	st	Z, r24
     72e:	9f bf       	out	0x3f, r25	; 63
     730:	81 e0       	ldi	r24, 0x01	; 1
     732:	90 e0       	ldi	r25, 0x00	; 0
     734:	df 91       	pop	r29
     736:	cf 91       	pop	r28
     738:	1f 91       	pop	r17
     73a:	0f 91       	pop	r16
     73c:	ff 90       	pop	r15
     73e:	ef 90       	pop	r14
     740:	08 95       	ret
     742:	f6 2e       	mov	r15, r22
     744:	0b 8d       	ldd	r16, Y+27	; 0x1b
     746:	10 e0       	ldi	r17, 0x00	; 0
     748:	0f 5f       	subi	r16, 0xFF	; 255
     74a:	1f 4f       	sbci	r17, 0xFF	; 255
     74c:	0f 73       	andi	r16, 0x3F	; 63
     74e:	11 27       	eor	r17, r17
     750:	e0 2e       	mov	r14, r16
     752:	8c 8d       	ldd	r24, Y+28	; 0x1c
     754:	8e 11       	cpse	r24, r14
     756:	0c c0       	rjmp	.+24     	;  0x770
     758:	0f b6       	in	r0, 0x3f	; 63
     75a:	07 fc       	sbrc	r0, 7
     75c:	fa cf       	rjmp	.-12     	;  0x752
     75e:	e8 89       	ldd	r30, Y+16	; 0x10
     760:	f9 89       	ldd	r31, Y+17	; 0x11
     762:	80 81       	ld	r24, Z
     764:	85 ff       	sbrs	r24, 5
     766:	f5 cf       	rjmp	.-22     	;  0x752
     768:	ce 01       	movw	r24, r28
     76a:	0e 94 58 03 	call	0x6b0	;  0x6b0
     76e:	f1 cf       	rjmp	.-30     	;  0x752
     770:	eb 8d       	ldd	r30, Y+27	; 0x1b
     772:	ec 0f       	add	r30, r28
     774:	fd 2f       	mov	r31, r29
     776:	f1 1d       	adc	r31, r1
     778:	e3 5a       	subi	r30, 0xA3	; 163
     77a:	ff 4f       	sbci	r31, 0xFF	; 255
     77c:	f0 82       	st	Z, r15
     77e:	9f b7       	in	r25, 0x3f	; 63
     780:	f8 94       	cli
     782:	0b 8f       	std	Y+27, r16	; 0x1b
     784:	ea 89       	ldd	r30, Y+18	; 0x12
     786:	fb 89       	ldd	r31, Y+19	; 0x13
     788:	80 81       	ld	r24, Z
     78a:	80 62       	ori	r24, 0x20	; 32
     78c:	cf cf       	rjmp	.-98     	;  0x72c
     78e:	cf 93       	push	r28
     790:	df 93       	push	r29
     792:	ec 01       	movw	r28, r24
     794:	88 8d       	ldd	r24, Y+24	; 0x18
     796:	88 23       	and	r24, r24
     798:	b9 f0       	breq	.+46     	;  0x7c8
     79a:	aa 89       	ldd	r26, Y+18	; 0x12
     79c:	bb 89       	ldd	r27, Y+19	; 0x13
     79e:	e8 89       	ldd	r30, Y+16	; 0x10
     7a0:	f9 89       	ldd	r31, Y+17	; 0x11
     7a2:	8c 91       	ld	r24, X
     7a4:	85 fd       	sbrc	r24, 5
     7a6:	03 c0       	rjmp	.+6      	;  0x7ae
     7a8:	80 81       	ld	r24, Z
     7aa:	86 fd       	sbrc	r24, 6
     7ac:	0d c0       	rjmp	.+26     	;  0x7c8
     7ae:	0f b6       	in	r0, 0x3f	; 63
     7b0:	07 fc       	sbrc	r0, 7
     7b2:	f7 cf       	rjmp	.-18     	;  0x7a2
     7b4:	8c 91       	ld	r24, X
     7b6:	85 ff       	sbrs	r24, 5
     7b8:	f2 cf       	rjmp	.-28     	;  0x79e
     7ba:	80 81       	ld	r24, Z
     7bc:	85 ff       	sbrs	r24, 5
     7be:	ed cf       	rjmp	.-38     	;  0x79a
     7c0:	ce 01       	movw	r24, r28
     7c2:	0e 94 58 03 	call	0x6b0	;  0x6b0
     7c6:	e9 cf       	rjmp	.-46     	;  0x79a
     7c8:	df 91       	pop	r29
     7ca:	cf 91       	pop	r28
     7cc:	08 95       	ret
     7ce:	80 e0       	ldi	r24, 0x00	; 0
     7d0:	90 e0       	ldi	r25, 0x00	; 0
     7d2:	89 2b       	or	r24, r25
     7d4:	29 f0       	breq	.+10     	;  0x7e0
     7d6:	0e 94 4e 03 	call	0x69c	;  0x69c
     7da:	81 11       	cpse	r24, r1
     7dc:	0e 94 00 00 	call	0	;  0x0
     7e0:	80 e0       	ldi	r24, 0x00	; 0
     7e2:	90 e0       	ldi	r25, 0x00	; 0
     7e4:	89 2b       	or	r24, r25
     7e6:	29 f0       	breq	.+10     	;  0x7f2
     7e8:	0e 94 44 03 	call	0x688	;  0x688
     7ec:	81 11       	cpse	r24, r1
     7ee:	0e 94 00 00 	call	0	;  0x0
     7f2:	80 e0       	ldi	r24, 0x00	; 0
     7f4:	90 e0       	ldi	r25, 0x00	; 0
     7f6:	89 2b       	or	r24, r25
     7f8:	49 f0       	breq	.+18     	;  0x80c
     7fa:	80 e0       	ldi	r24, 0x00	; 0
     7fc:	90 e0       	ldi	r25, 0x00	; 0
     7fe:	89 2b       	or	r24, r25
     800:	29 f0       	breq	.+10     	;  0x80c
     802:	0e 94 00 00 	call	0	;  0x0
     806:	81 11       	cpse	r24, r1
     808:	0e 94 00 00 	call	0	;  0x0
     80c:	80 e0       	ldi	r24, 0x00	; 0
     80e:	90 e0       	ldi	r25, 0x00	; 0
     810:	89 2b       	or	r24, r25
     812:	49 f0       	breq	.+18     	;  0x826
     814:	80 e0       	ldi	r24, 0x00	; 0
     816:	90 e0       	ldi	r25, 0x00	; 0
     818:	89 2b       	or	r24, r25
     81a:	29 f0       	breq	.+10     	;  0x826
     81c:	0e 94 00 00 	call	0	;  0x0
     820:	81 11       	cpse	r24, r1
     822:	0c 94 00 00 	jmp	0	;  0x0
     826:	08 95       	ret
     828:	0f 93       	push	r16
     82a:	1f 93       	push	r17
     82c:	cf 93       	push	r28
     82e:	df 93       	push	r29
     830:	ec 01       	movw	r28, r24
     832:	06 2f       	mov	r16, r22
     834:	14 2f       	mov	r17, r20
     836:	60 e0       	ldi	r22, 0x00	; 0
     838:	88 89       	ldd	r24, Y+16	; 0x10
     83a:	0e 94 c5 01 	call	0x38a	;  0x38a
     83e:	9c 85       	ldd	r25, Y+12	; 0x0c
     840:	8d 85       	ldd	r24, Y+13	; 0x0d
     842:	9c bd       	out	0x2c, r25	; 44
     844:	8d bd       	out	0x2d, r24	; 45
     846:	0e bd       	out	0x2e, r16	; 46
     848:	00 00       	nop
     84a:	0d b4       	in	r0, 0x2d	; 45
     84c:	07 fe       	sbrs	r0, 7
     84e:	fd cf       	rjmp	.-6      	;  0x84a
     850:	8e b5       	in	r24, 0x2e	; 46
     852:	1e bd       	out	0x2e, r17	; 46
     854:	00 00       	nop
     856:	0d b4       	in	r0, 0x2d	; 45
     858:	07 fe       	sbrs	r0, 7
     85a:	fd cf       	rjmp	.-6      	;  0x856
     85c:	1e b5       	in	r17, 0x2e	; 46
     85e:	61 e0       	ldi	r22, 0x01	; 1
     860:	88 89       	ldd	r24, Y+16	; 0x10
     862:	0e 94 c5 01 	call	0x38a	;  0x38a
     866:	81 2f       	mov	r24, r17
     868:	df 91       	pop	r29
     86a:	cf 91       	pop	r28
     86c:	1f 91       	pop	r17
     86e:	0f 91       	pop	r16
     870:	08 95       	ret
     872:	40 e0       	ldi	r20, 0x00	; 0
     874:	0c 94 14 04 	jmp	0x828	;  0x828
     878:	08 95       	ret
     87a:	0f 93       	push	r16
     87c:	1f 93       	push	r17
     87e:	cf 93       	push	r28
     880:	df 93       	push	r29
     882:	ec 01       	movw	r28, r24
     884:	e8 81       	ld	r30, Y
     886:	f9 81       	ldd	r31, Y+1	; 0x01
     888:	00 84       	ldd	r0, Z+8	; 0x08
     88a:	f1 85       	ldd	r31, Z+9	; 0x09
     88c:	e0 2d       	mov	r30, r0
     88e:	19 95       	eicall
     890:	89 2b       	or	r24, r25
     892:	b1 f0       	breq	.+44     	;  0x8c0
     894:	6d e0       	ldi	r22, 0x0D	; 13
     896:	ce 01       	movw	r24, r28
     898:	0e 94 39 04 	call	0x872	;  0x872
     89c:	08 2f       	mov	r16, r24
     89e:	60 e0       	ldi	r22, 0x00	; 0
     8a0:	ce 01       	movw	r24, r28
     8a2:	0e 94 39 04 	call	0x872	;  0x872
     8a6:	18 2f       	mov	r17, r24
     8a8:	40 2f       	mov	r20, r16
     8aa:	6d e8       	ldi	r22, 0x8D	; 141
     8ac:	ce 01       	movw	r24, r28
     8ae:	0e 94 14 04 	call	0x828	;  0x828
     8b2:	81 2f       	mov	r24, r17
     8b4:	90 e0       	ldi	r25, 0x00	; 0
     8b6:	df 91       	pop	r29
     8b8:	cf 91       	pop	r28
     8ba:	1f 91       	pop	r17
     8bc:	0f 91       	pop	r16
     8be:	08 95       	ret
     8c0:	8f ef       	ldi	r24, 0xFF	; 255
     8c2:	9f ef       	ldi	r25, 0xFF	; 255
     8c4:	f8 cf       	rjmp	.-16     	;  0x8b6
     8c6:	cf 93       	push	r28
     8c8:	df 93       	push	r29
     8ca:	ec 01       	movw	r28, r24
     8cc:	e8 81       	ld	r30, Y
     8ce:	f9 81       	ldd	r31, Y+1	; 0x01
     8d0:	00 84       	ldd	r0, Z+8	; 0x08
     8d2:	f1 85       	ldd	r31, Z+9	; 0x09
     8d4:	e0 2d       	mov	r30, r0
     8d6:	19 95       	eicall
     8d8:	89 2b       	or	r24, r25
     8da:	69 f0       	breq	.+26     	;  0x8f6
     8dc:	8a 8d       	ldd	r24, Y+26	; 0x1a
     8de:	9b 8d       	ldd	r25, Y+27	; 0x1b
     8e0:	01 96       	adiw	r24, 0x01	; 1
     8e2:	9b 8f       	std	Y+27, r25	; 0x1b
     8e4:	8a 8f       	std	Y+26, r24	; 0x1a
     8e6:	60 e0       	ldi	r22, 0x00	; 0
     8e8:	ce 01       	movw	r24, r28
     8ea:	0e 94 39 04 	call	0x872	;  0x872
     8ee:	90 e0       	ldi	r25, 0x00	; 0
     8f0:	df 91       	pop	r29
     8f2:	cf 91       	pop	r28
     8f4:	08 95       	ret
     8f6:	8f ef       	ldi	r24, 0xFF	; 255
     8f8:	9f ef       	ldi	r25, 0xFF	; 255
     8fa:	fa cf       	rjmp	.-12     	;  0x8f0
     8fc:	cf 93       	push	r28
     8fe:	df 93       	push	r29
     900:	ec 01       	movw	r28, r24
     902:	63 e1       	ldi	r22, 0x13	; 19
     904:	0e 94 39 04 	call	0x872	;  0x872
     908:	90 e0       	ldi	r25, 0x00	; 0
     90a:	2a 8d       	ldd	r18, Y+26	; 0x1a
     90c:	3b 8d       	ldd	r19, Y+27	; 0x1b
     90e:	82 1b       	sub	r24, r18
     910:	93 0b       	sbc	r25, r19
     912:	df 91       	pop	r29
     914:	cf 91       	pop	r28
     916:	08 95       	ret
     918:	af 92       	push	r10
     91a:	bf 92       	push	r11
     91c:	cf 92       	push	r12
     91e:	df 92       	push	r13
     920:	ff 92       	push	r15
     922:	0f 93       	push	r16
     924:	1f 93       	push	r17
     926:	cf 93       	push	r28
     928:	df 93       	push	r29
     92a:	6c 01       	movw	r12, r24
     92c:	5b 01       	movw	r10, r22
     92e:	ea 01       	movw	r28, r20
     930:	62 e2       	ldi	r22, 0x22	; 34
     932:	0e 94 39 04 	call	0x872	;  0x872
     936:	f8 2e       	mov	r15, r24
     938:	90 e0       	ldi	r25, 0x00	; 0
     93a:	9c 01       	movw	r18, r24
     93c:	2c 0f       	add	r18, r28
     93e:	3d 1f       	adc	r19, r29
     940:	2f 3f       	cpi	r18, 0xFF	; 255
     942:	31 05       	cpc	r19, r1
     944:	29 f0       	breq	.+10     	;  0x950
     946:	20 f0       	brcs	.+8      	;  0x950
     948:	cf ef       	ldi	r28, 0xFF	; 255
     94a:	d0 e0       	ldi	r29, 0x00	; 0
     94c:	c8 1b       	sub	r28, r24
     94e:	d9 0b       	sbc	r29, r25
     950:	85 01       	movw	r16, r10
     952:	ac 0e       	add	r10, r28
     954:	bd 1e       	adc	r11, r29
     956:	0a 15       	cp	r16, r10
     958:	1b 05       	cpc	r17, r11
     95a:	41 f0       	breq	.+16     	;  0x96c
     95c:	f8 01       	movw	r30, r16
     95e:	41 91       	ld	r20, Z+
     960:	8f 01       	movw	r16, r30
     962:	60 e8       	ldi	r22, 0x80	; 128
     964:	c6 01       	movw	r24, r12
     966:	0e 94 14 04 	call	0x828	;  0x828
     96a:	f5 cf       	rjmp	.-22     	;  0x956
     96c:	4c 2f       	mov	r20, r28
     96e:	4f 0d       	add	r20, r15
     970:	62 ea       	ldi	r22, 0xA2	; 162
     972:	c6 01       	movw	r24, r12
     974:	0e 94 14 04 	call	0x828	;  0x828
     978:	ce 01       	movw	r24, r28
     97a:	df 91       	pop	r29
     97c:	cf 91       	pop	r28
     97e:	1f 91       	pop	r17
     980:	0f 91       	pop	r16
     982:	ff 90       	pop	r15
     984:	df 90       	pop	r13
     986:	cf 90       	pop	r12
     988:	bf 90       	pop	r11
     98a:	af 90       	pop	r10
     98c:	08 95       	ret
     98e:	cf 93       	push	r28
     990:	df 93       	push	r29
     992:	1f 92       	push	r1
     994:	cd b7       	in	r28, 0x3d	; 61
     996:	de b7       	in	r29, 0x3e	; 62
     998:	69 83       	std	Y+1, r22	; 0x01
     99a:	dc 01       	movw	r26, r24
     99c:	ed 91       	ld	r30, X+
     99e:	fc 91       	ld	r31, X
     9a0:	02 80       	ldd	r0, Z+2	; 0x02
     9a2:	f3 81       	ldd	r31, Z+3	; 0x03
     9a4:	e0 2d       	mov	r30, r0
     9a6:	41 e0       	ldi	r20, 0x01	; 1
     9a8:	50 e0       	ldi	r21, 0x00	; 0
     9aa:	be 01       	movw	r22, r28
     9ac:	6f 5f       	subi	r22, 0xFF	; 255
     9ae:	7f 4f       	sbci	r23, 0xFF	; 255
     9b0:	19 95       	eicall
     9b2:	0f 90       	pop	r0
     9b4:	df 91       	pop	r29
     9b6:	cf 91       	pop	r28
     9b8:	08 95       	ret
     9ba:	90 e0       	ldi	r25, 0x00	; 0
     9bc:	80 e0       	ldi	r24, 0x00	; 0
     9be:	08 95       	ret
     9c0:	af 92       	push	r10
     9c2:	bf 92       	push	r11
     9c4:	cf 92       	push	r12
     9c6:	df 92       	push	r13
     9c8:	ef 92       	push	r14
     9ca:	ff 92       	push	r15
     9cc:	0f 93       	push	r16
     9ce:	1f 93       	push	r17
     9d0:	cf 93       	push	r28
     9d2:	df 93       	push	r29
     9d4:	6b 01       	movw	r12, r22
     9d6:	7a 01       	movw	r14, r20
     9d8:	ec 01       	movw	r28, r24
     9da:	c4 56       	subi	r28, 0x64	; 100
     9dc:	dd 4f       	sbci	r29, 0xFD	; 253
     9de:	28 81       	ld	r18, Y
     9e0:	3c e0       	ldi	r19, 0x0C	; 12
     9e2:	38 9f       	mul	r19, r24
     9e4:	80 01       	movw	r16, r0
     9e6:	39 9f       	mul	r19, r25
     9e8:	10 0d       	add	r17, r0
     9ea:	11 24       	eor	r1, r1
     9ec:	a0 90 a5 04 	lds	r10, 0x04A5	;  0x8004a5
     9f0:	b1 2c       	mov	r11, r1
     9f2:	27 ff       	sbrs	r18, 7
     9f4:	1f c0       	rjmp	.+62     	;  0xa34
     9f6:	fb 01       	movw	r30, r22
     9f8:	11 82       	std	Z+1, r1	; 0x01
     9fa:	10 82       	st	Z, r1
     9fc:	88 81       	ld	r24, Y
     9fe:	8f 5f       	subi	r24, 0xFF	; 255
     a00:	88 83       	st	Y, r24
     a02:	88 81       	ld	r24, Y
     a04:	98 01       	movw	r18, r16
     a06:	28 0f       	add	r18, r24
     a08:	31 1d       	adc	r19, r1
     a0a:	87 fd       	sbrc	r24, 7
     a0c:	3a 95       	dec	r19
     a0e:	f6 01       	movw	r30, r12
     a10:	2a 15       	cp	r18, r10
     a12:	3b 05       	cpc	r19, r11
     a14:	1c f4       	brge	.+6      	;  0xa1c
     a16:	88 81       	ld	r24, Y
     a18:	8c 30       	cpi	r24, 0x0C	; 12
     a1a:	c4 f1       	brlt	.+112    	;  0xa8c
     a1c:	80 81       	ld	r24, Z
     a1e:	91 81       	ldd	r25, Z+1	; 0x01
     a20:	04 96       	adiw	r24, 0x04	; 4
     a22:	80 34       	cpi	r24, 0x40	; 64
     a24:	9c 49       	sbci	r25, 0x9C	; 156
     a26:	08 f4       	brcc	.+2      	;  0xa2a
     a28:	73 c0       	rjmp	.+230    	;  0xb10
     a2a:	f6 01       	movw	r30, r12
     a2c:	80 81       	ld	r24, Z
     a2e:	91 81       	ldd	r25, Z+1	; 0x01
     a30:	04 96       	adiw	r24, 0x04	; 4
     a32:	70 c0       	rjmp	.+224    	;  0xb14
     a34:	88 81       	ld	r24, Y
     a36:	98 01       	movw	r18, r16
     a38:	28 0f       	add	r18, r24
     a3a:	31 1d       	adc	r19, r1
     a3c:	87 fd       	sbrc	r24, 7
     a3e:	3a 95       	dec	r19
     a40:	2a 15       	cp	r18, r10
     a42:	3b 05       	cpc	r19, r11
     a44:	dc f6       	brge	.-74     	;  0x9fc
     a46:	88 81       	ld	r24, Y
     a48:	a8 01       	movw	r20, r16
     a4a:	48 0f       	add	r20, r24
     a4c:	51 1d       	adc	r21, r1
     a4e:	87 fd       	sbrc	r24, 7
     a50:	5a 95       	dec	r21
     a52:	fa 01       	movw	r30, r20
     a54:	ee 0f       	add	r30, r30
     a56:	ff 1f       	adc	r31, r31
     a58:	e4 0f       	add	r30, r20
     a5a:	f5 1f       	adc	r31, r21
     a5c:	eb 5e       	subi	r30, 0xEB	; 235
     a5e:	fb 4f       	sbci	r31, 0xFB	; 251
     a60:	80 81       	ld	r24, Z
     a62:	86 ff       	sbrs	r24, 6
     a64:	cb cf       	rjmp	.-106    	;  0x9fc
     a66:	88 81       	ld	r24, Y
     a68:	f8 01       	movw	r30, r16
     a6a:	e8 0f       	add	r30, r24
     a6c:	f1 1d       	adc	r31, r1
     a6e:	87 fd       	sbrc	r24, 7
     a70:	fa 95       	dec	r31
     a72:	cf 01       	movw	r24, r30
     a74:	ee 0f       	add	r30, r30
     a76:	ff 1f       	adc	r31, r31
     a78:	e8 0f       	add	r30, r24
     a7a:	f9 1f       	adc	r31, r25
     a7c:	eb 5e       	subi	r30, 0xEB	; 235
     a7e:	fb 4f       	sbci	r31, 0xFB	; 251
     a80:	80 81       	ld	r24, Z
     a82:	60 e0       	ldi	r22, 0x00	; 0
     a84:	8f 73       	andi	r24, 0x3F	; 63
     a86:	0e 94 c5 01 	call	0x38a	;  0x38a
     a8a:	b8 cf       	rjmp	.-144    	;  0x9fc
     a8c:	80 81       	ld	r24, Z
     a8e:	91 81       	ldd	r25, Z+1	; 0x01
     a90:	28 81       	ld	r18, Y
     a92:	a8 01       	movw	r20, r16
     a94:	42 0f       	add	r20, r18
     a96:	51 1d       	adc	r21, r1
     a98:	27 fd       	sbrc	r18, 7
     a9a:	5a 95       	dec	r21
     a9c:	9a 01       	movw	r18, r20
     a9e:	fa 01       	movw	r30, r20
     aa0:	ee 0f       	add	r30, r30
     aa2:	ff 1f       	adc	r31, r31
     aa4:	e2 0f       	add	r30, r18
     aa6:	f3 1f       	adc	r31, r19
     aa8:	eb 5e       	subi	r30, 0xEB	; 235
     aaa:	fb 4f       	sbci	r31, 0xFB	; 251
     aac:	21 81       	ldd	r18, Z+1	; 0x01
     aae:	32 81       	ldd	r19, Z+2	; 0x02
     ab0:	82 0f       	add	r24, r18
     ab2:	93 1f       	adc	r25, r19
     ab4:	f7 01       	movw	r30, r14
     ab6:	91 83       	std	Z+1, r25	; 0x01
     ab8:	80 83       	st	Z, r24
     aba:	88 81       	ld	r24, Y
     abc:	98 01       	movw	r18, r16
     abe:	28 0f       	add	r18, r24
     ac0:	31 1d       	adc	r19, r1
     ac2:	87 fd       	sbrc	r24, 7
     ac4:	3a 95       	dec	r19
     ac6:	f9 01       	movw	r30, r18
     ac8:	ee 0f       	add	r30, r30
     aca:	ff 1f       	adc	r31, r31
     acc:	e2 0f       	add	r30, r18
     ace:	f3 1f       	adc	r31, r19
     ad0:	eb 5e       	subi	r30, 0xEB	; 235
     ad2:	fb 4f       	sbci	r31, 0xFB	; 251
     ad4:	80 81       	ld	r24, Z
     ad6:	86 ff       	sbrs	r24, 6
     ad8:	22 c0       	rjmp	.+68     	;  0xb1e
     ada:	88 81       	ld	r24, Y
     adc:	08 0f       	add	r16, r24
     ade:	11 1d       	adc	r17, r1
     ae0:	87 fd       	sbrc	r24, 7
     ae2:	1a 95       	dec	r17
     ae4:	f8 01       	movw	r30, r16
     ae6:	ee 0f       	add	r30, r30
     ae8:	ff 1f       	adc	r31, r31
     aea:	e0 0f       	add	r30, r16
     aec:	f1 1f       	adc	r31, r17
     aee:	eb 5e       	subi	r30, 0xEB	; 235
     af0:	fb 4f       	sbci	r31, 0xFB	; 251
     af2:	80 81       	ld	r24, Z
     af4:	61 e0       	ldi	r22, 0x01	; 1
     af6:	8f 73       	andi	r24, 0x3F	; 63
     af8:	df 91       	pop	r29
     afa:	cf 91       	pop	r28
     afc:	1f 91       	pop	r17
     afe:	0f 91       	pop	r16
     b00:	ff 90       	pop	r15
     b02:	ef 90       	pop	r14
     b04:	df 90       	pop	r13
     b06:	cf 90       	pop	r12
     b08:	bf 90       	pop	r11
     b0a:	af 90       	pop	r10
     b0c:	0c 94 c5 01 	jmp	0x38a	;  0x38a
     b10:	80 e4       	ldi	r24, 0x40	; 64
     b12:	9c e9       	ldi	r25, 0x9C	; 156
     b14:	f7 01       	movw	r30, r14
     b16:	91 83       	std	Z+1, r25	; 0x01
     b18:	80 83       	st	Z, r24
     b1a:	8f ef       	ldi	r24, 0xFF	; 255
     b1c:	88 83       	st	Y, r24
     b1e:	df 91       	pop	r29
     b20:	cf 91       	pop	r28
     b22:	1f 91       	pop	r17
     b24:	0f 91       	pop	r16
     b26:	ff 90       	pop	r15
     b28:	ef 90       	pop	r14
     b2a:	df 90       	pop	r13
     b2c:	cf 90       	pop	r12
     b2e:	bf 90       	pop	r11
     b30:	af 90       	pop	r10
     b32:	08 95       	ret
     b34:	fb 01       	movw	r30, r22
     b36:	01 90       	ld	r0, Z+
     b38:	00 20       	and	r0, r0
     b3a:	e9 f7       	brne	.-6      	;  0xb36
     b3c:	31 97       	sbiw	r30, 0x01	; 1
     b3e:	af 01       	movw	r20, r30
     b40:	46 1b       	sub	r20, r22
     b42:	57 0b       	sbc	r21, r23
     b44:	dc 01       	movw	r26, r24
     b46:	ed 91       	ld	r30, X+
     b48:	fc 91       	ld	r31, X
     b4a:	02 80       	ldd	r0, Z+2	; 0x02
     b4c:	f3 81       	ldd	r31, Z+3	; 0x03
     b4e:	e0 2d       	mov	r30, r0
     b50:	19 94       	eijmp
     b52:	8f 92       	push	r8
     b54:	9f 92       	push	r9
     b56:	af 92       	push	r10
     b58:	bf 92       	push	r11
     b5a:	ef 92       	push	r14
     b5c:	ff 92       	push	r15
     b5e:	0f 93       	push	r16
     b60:	1f 93       	push	r17
     b62:	cf 93       	push	r28
     b64:	df 93       	push	r29
     b66:	cd b7       	in	r28, 0x3d	; 61
     b68:	de b7       	in	r29, 0x3e	; 62
     b6a:	a1 97       	sbiw	r28, 0x21	; 33
     b6c:	0f b6       	in	r0, 0x3f	; 63
     b6e:	f8 94       	cli
     b70:	de bf       	out	0x3e, r29	; 62
     b72:	0f be       	out	0x3f, r0	; 63
     b74:	cd bf       	out	0x3d, r28	; 61
     b76:	7c 01       	movw	r14, r24
     b78:	fa 01       	movw	r30, r20
     b7a:	cb 01       	movw	r24, r22
     b7c:	19 a2       	std	Y+33, r1	; 0x21
     b7e:	22 30       	cpi	r18, 0x02	; 2
     b80:	08 f4       	brcc	.+2      	;  0xb84
     b82:	2a e0       	ldi	r18, 0x0A	; 10
     b84:	8e 01       	movw	r16, r28
     b86:	0f 5d       	subi	r16, 0xDF	; 223
     b88:	1f 4f       	sbci	r17, 0xFF	; 255
     b8a:	82 2e       	mov	r8, r18
     b8c:	91 2c       	mov	r9, r1
     b8e:	b1 2c       	mov	r11, r1
     b90:	a1 2c       	mov	r10, r1
     b92:	bf 01       	movw	r22, r30
     b94:	a5 01       	movw	r20, r10
     b96:	94 01       	movw	r18, r8
     b98:	0e 94 a9 12 	call	0x2552	;  0x2552
     b9c:	f9 01       	movw	r30, r18
     b9e:	ca 01       	movw	r24, r20
     ba0:	6a 30       	cpi	r22, 0x0A	; 10
     ba2:	0c f5       	brge	.+66     	;  0xbe6
     ba4:	60 5d       	subi	r22, 0xD0	; 208
     ba6:	d8 01       	movw	r26, r16
     ba8:	6e 93       	st	-X, r22
     baa:	8d 01       	movw	r16, r26
     bac:	23 2b       	or	r18, r19
     bae:	24 2b       	or	r18, r20
     bb0:	25 2b       	or	r18, r21
     bb2:	79 f7       	brne	.-34     	;  0xb92
     bb4:	90 e0       	ldi	r25, 0x00	; 0
     bb6:	80 e0       	ldi	r24, 0x00	; 0
     bb8:	10 97       	sbiw	r26, 0x00	; 0
     bba:	21 f0       	breq	.+8      	;  0xbc4
     bbc:	bd 01       	movw	r22, r26
     bbe:	c7 01       	movw	r24, r14
     bc0:	0e 94 9a 05 	call	0xb34	;  0xb34
     bc4:	a1 96       	adiw	r28, 0x21	; 33
     bc6:	0f b6       	in	r0, 0x3f	; 63
     bc8:	f8 94       	cli
     bca:	de bf       	out	0x3e, r29	; 62
     bcc:	0f be       	out	0x3f, r0	; 63
     bce:	cd bf       	out	0x3d, r28	; 61
     bd0:	df 91       	pop	r29
     bd2:	cf 91       	pop	r28
     bd4:	1f 91       	pop	r17
     bd6:	0f 91       	pop	r16
     bd8:	ff 90       	pop	r15
     bda:	ef 90       	pop	r14
     bdc:	bf 90       	pop	r11
     bde:	af 90       	pop	r10
     be0:	9f 90       	pop	r9
     be2:	8f 90       	pop	r8
     be4:	08 95       	ret
     be6:	69 5c       	subi	r22, 0xC9	; 201
     be8:	de cf       	rjmp	.-68     	;  0xba6
     bea:	2f 92       	push	r2
     bec:	3f 92       	push	r3
     bee:	4f 92       	push	r4
     bf0:	5f 92       	push	r5
     bf2:	6f 92       	push	r6
     bf4:	7f 92       	push	r7
     bf6:	8f 92       	push	r8
     bf8:	9f 92       	push	r9
     bfa:	af 92       	push	r10
     bfc:	bf 92       	push	r11
     bfe:	cf 92       	push	r12
     c00:	df 92       	push	r13
     c02:	ef 92       	push	r14
     c04:	ff 92       	push	r15
     c06:	1f 93       	push	r17
     c08:	cf 93       	push	r28
     c0a:	df 93       	push	r29
     c0c:	ec 01       	movw	r28, r24
     c0e:	6a 01       	movw	r12, r20
     c10:	7b 01       	movw	r14, r22
     c12:	72 2e       	mov	r7, r18
     c14:	ab 01       	movw	r20, r22
     c16:	96 01       	movw	r18, r12
     c18:	cb 01       	movw	r24, r22
     c1a:	b6 01       	movw	r22, r12
     c1c:	0e 94 e5 14 	call	0x29ca	;  0x29ca
     c20:	68 e3       	ldi	r22, 0x38	; 56
     c22:	72 e0       	ldi	r23, 0x02	; 2
     c24:	81 11       	cpse	r24, r1
     c26:	26 c0       	rjmp	.+76     	;  0xc74
     c28:	46 01       	movw	r8, r12
     c2a:	57 01       	movw	r10, r14
     c2c:	e8 94       	clt
     c2e:	b7 f8       	bld	r11, 7
     c30:	2f ef       	ldi	r18, 0xFF	; 255
     c32:	3f ef       	ldi	r19, 0xFF	; 255
     c34:	4f e7       	ldi	r20, 0x7F	; 127
     c36:	5f e7       	ldi	r21, 0x7F	; 127
     c38:	c5 01       	movw	r24, r10
     c3a:	b4 01       	movw	r22, r8
     c3c:	0e 94 e5 14 	call	0x29ca	;  0x29ca
     c40:	81 11       	cpse	r24, r1
     c42:	0c c0       	rjmp	.+24     	;  0xc5c
     c44:	2f ef       	ldi	r18, 0xFF	; 255
     c46:	3f ef       	ldi	r19, 0xFF	; 255
     c48:	4f e7       	ldi	r20, 0x7F	; 127
     c4a:	5f e7       	ldi	r21, 0x7F	; 127
     c4c:	c5 01       	movw	r24, r10
     c4e:	b4 01       	movw	r22, r8
     c50:	0e 94 53 11 	call	0x22a6	;  0x22a6
     c54:	6c e3       	ldi	r22, 0x3C	; 60
     c56:	72 e0       	ldi	r23, 0x02	; 2
     c58:	18 16       	cp	r1, r24
     c5a:	64 f0       	brlt	.+24     	;  0xc74
     c5c:	2f ef       	ldi	r18, 0xFF	; 255
     c5e:	3f ef       	ldi	r19, 0xFF	; 255
     c60:	4f e7       	ldi	r20, 0x7F	; 127
     c62:	5f e4       	ldi	r21, 0x4F	; 79
     c64:	c7 01       	movw	r24, r14
     c66:	b6 01       	movw	r22, r12
     c68:	0e 94 cc 14 	call	0x2998	;  0x2998
     c6c:	18 16       	cp	r1, r24
     c6e:	b4 f4       	brge	.+44     	;  0xc9c
     c70:	60 e4       	ldi	r22, 0x40	; 64
     c72:	72 e0       	ldi	r23, 0x02	; 2
     c74:	ce 01       	movw	r24, r28
     c76:	df 91       	pop	r29
     c78:	cf 91       	pop	r28
     c7a:	1f 91       	pop	r17
     c7c:	ff 90       	pop	r15
     c7e:	ef 90       	pop	r14
     c80:	df 90       	pop	r13
     c82:	cf 90       	pop	r12
     c84:	bf 90       	pop	r11
     c86:	af 90       	pop	r10
     c88:	9f 90       	pop	r9
     c8a:	8f 90       	pop	r8
     c8c:	7f 90       	pop	r7
     c8e:	6f 90       	pop	r6
     c90:	5f 90       	pop	r5
     c92:	4f 90       	pop	r4
     c94:	3f 90       	pop	r3
     c96:	2f 90       	pop	r2
     c98:	0c 94 9a 05 	jmp	0xb34	;  0xb34
     c9c:	2f ef       	ldi	r18, 0xFF	; 255
     c9e:	3f ef       	ldi	r19, 0xFF	; 255
     ca0:	4f e7       	ldi	r20, 0x7F	; 127
     ca2:	5f ec       	ldi	r21, 0xCF	; 207
     ca4:	c7 01       	movw	r24, r14
     ca6:	b6 01       	movw	r22, r12
     ca8:	0e 94 53 11 	call	0x22a6	;  0x22a6
     cac:	87 fd       	sbrc	r24, 7
     cae:	e0 cf       	rjmp	.-64     	;  0xc70
     cb0:	20 e0       	ldi	r18, 0x00	; 0
     cb2:	30 e0       	ldi	r19, 0x00	; 0
     cb4:	a9 01       	movw	r20, r18
     cb6:	c7 01       	movw	r24, r14
     cb8:	b6 01       	movw	r22, r12
     cba:	0e 94 53 11 	call	0x22a6	;  0x22a6
     cbe:	31 2c       	mov	r3, r1
     cc0:	21 2c       	mov	r2, r1
     cc2:	87 ff       	sbrs	r24, 7
     cc4:	0d c0       	rjmp	.+26     	;  0xce0
     cc6:	e8 81       	ld	r30, Y
     cc8:	f9 81       	ldd	r31, Y+1	; 0x01
     cca:	01 90       	ld	r0, Z+
     ccc:	f0 81       	ld	r31, Z
     cce:	e0 2d       	mov	r30, r0
     cd0:	6d e2       	ldi	r22, 0x2D	; 45
     cd2:	ce 01       	movw	r24, r28
     cd4:	19 95       	eicall
     cd6:	1c 01       	movw	r2, r24
     cd8:	f7 fa       	bst	r15, 7
     cda:	f0 94       	com	r15
     cdc:	f7 f8       	bld	r15, 7
     cde:	f0 94       	com	r15
     ce0:	10 e0       	ldi	r17, 0x00	; 0
     ce2:	60 e0       	ldi	r22, 0x00	; 0
     ce4:	70 e0       	ldi	r23, 0x00	; 0
     ce6:	80 e0       	ldi	r24, 0x00	; 0
     ce8:	9f e3       	ldi	r25, 0x3F	; 63
     cea:	71 16       	cp	r7, r17
     cec:	41 f0       	breq	.+16     	;  0xcfe
     cee:	20 e0       	ldi	r18, 0x00	; 0
     cf0:	30 e0       	ldi	r19, 0x00	; 0
     cf2:	40 e2       	ldi	r20, 0x20	; 32
     cf4:	51 e4       	ldi	r21, 0x41	; 65
     cf6:	0e 94 be 13 	call	0x277c	;  0x277c
     cfa:	1f 5f       	subi	r17, 0xFF	; 255
     cfc:	f6 cf       	rjmp	.-20     	;  0xcea
     cfe:	a7 01       	movw	r20, r14
     d00:	96 01       	movw	r18, r12
     d02:	0e 94 db 12 	call	0x25b6	;  0x25b6
     d06:	2b 01       	movw	r4, r22
     d08:	3c 01       	movw	r6, r24
     d0a:	0e 94 37 14 	call	0x286e	;  0x286e
     d0e:	4b 01       	movw	r8, r22
     d10:	5c 01       	movw	r10, r24
     d12:	2a e0       	ldi	r18, 0x0A	; 10
     d14:	bc 01       	movw	r22, r24
     d16:	a4 01       	movw	r20, r8
     d18:	ce 01       	movw	r24, r28
     d1a:	0e 94 a9 05 	call	0xb52	;  0xb52
     d1e:	7c 01       	movw	r14, r24
     d20:	e2 0c       	add	r14, r2
     d22:	f3 1c       	adc	r15, r3
     d24:	11 23       	and	r17, r17
     d26:	e1 f1       	breq	.+120    	;  0xda0
     d28:	c5 01       	movw	r24, r10
     d2a:	b4 01       	movw	r22, r8
     d2c:	0e 94 58 11 	call	0x22b0	;  0x22b0
     d30:	9b 01       	movw	r18, r22
     d32:	ac 01       	movw	r20, r24
     d34:	c3 01       	movw	r24, r6
     d36:	b2 01       	movw	r22, r4
     d38:	0e 94 da 12 	call	0x25b4	;  0x25b4
     d3c:	4b 01       	movw	r8, r22
     d3e:	5c 01       	movw	r10, r24
     d40:	e8 81       	ld	r30, Y
     d42:	f9 81       	ldd	r31, Y+1	; 0x01
     d44:	01 90       	ld	r0, Z+
     d46:	f0 81       	ld	r31, Z
     d48:	e0 2d       	mov	r30, r0
     d4a:	6e e2       	ldi	r22, 0x2E	; 46
     d4c:	ce 01       	movw	r24, r28
     d4e:	19 95       	eicall
     d50:	e8 0e       	add	r14, r24
     d52:	f9 1e       	adc	r15, r25
     d54:	11 50       	subi	r17, 0x01	; 1
     d56:	20 f1       	brcs	.+72     	;  0xda0
     d58:	20 e0       	ldi	r18, 0x00	; 0
     d5a:	30 e0       	ldi	r19, 0x00	; 0
     d5c:	40 e2       	ldi	r20, 0x20	; 32
     d5e:	51 e4       	ldi	r21, 0x41	; 65
     d60:	c5 01       	movw	r24, r10
     d62:	b4 01       	movw	r22, r8
     d64:	0e 94 b9 11 	call	0x2372	;  0x2372
     d68:	2b 01       	movw	r4, r22
     d6a:	3c 01       	movw	r6, r24
     d6c:	0e 94 37 14 	call	0x286e	;  0x286e
     d70:	4b 01       	movw	r8, r22
     d72:	b1 2c       	mov	r11, r1
     d74:	a1 2c       	mov	r10, r1
     d76:	2a e0       	ldi	r18, 0x0A	; 10
     d78:	b5 01       	movw	r22, r10
     d7a:	a4 01       	movw	r20, r8
     d7c:	ce 01       	movw	r24, r28
     d7e:	0e 94 a9 05 	call	0xb52	;  0xb52
     d82:	e8 0e       	add	r14, r24
     d84:	f9 1e       	adc	r15, r25
     d86:	c5 01       	movw	r24, r10
     d88:	b4 01       	movw	r22, r8
     d8a:	0e 94 58 11 	call	0x22b0	;  0x22b0
     d8e:	9b 01       	movw	r18, r22
     d90:	ac 01       	movw	r20, r24
     d92:	c3 01       	movw	r24, r6
     d94:	b2 01       	movw	r22, r4
     d96:	0e 94 da 12 	call	0x25b4	;  0x25b4
     d9a:	4b 01       	movw	r8, r22
     d9c:	5c 01       	movw	r10, r24
     d9e:	da cf       	rjmp	.-76     	;  0xd54
     da0:	c7 01       	movw	r24, r14
     da2:	df 91       	pop	r29
     da4:	cf 91       	pop	r28
     da6:	1f 91       	pop	r17
     da8:	ff 90       	pop	r15
     daa:	ef 90       	pop	r14
     dac:	df 90       	pop	r13
     dae:	cf 90       	pop	r12
     db0:	bf 90       	pop	r11
     db2:	af 90       	pop	r10
     db4:	9f 90       	pop	r9
     db6:	8f 90       	pop	r8
     db8:	7f 90       	pop	r7
     dba:	6f 90       	pop	r6
     dbc:	5f 90       	pop	r5
     dbe:	4f 90       	pop	r4
     dc0:	3f 90       	pop	r3
     dc2:	2f 90       	pop	r2
     dc4:	08 95       	ret
     dc6:	1f 92       	push	r1
     dc8:	0f 92       	push	r0
     dca:	0f b6       	in	r0, 0x3f	; 63
     dcc:	0f 92       	push	r0
     dce:	11 24       	eor	r1, r1
     dd0:	2f 93       	push	r18
     dd2:	3f 93       	push	r19
     dd4:	8f 93       	push	r24
     dd6:	9f 93       	push	r25
     dd8:	af 93       	push	r26
     dda:	bf 93       	push	r27
     ddc:	80 91 a2 02 	lds	r24, 0x02A2	;  0x8002a2
     de0:	90 91 a3 02 	lds	r25, 0x02A3	;  0x8002a3
     de4:	a0 91 a4 02 	lds	r26, 0x02A4	;  0x8002a4
     de8:	b0 91 a5 02 	lds	r27, 0x02A5	;  0x8002a5
     dec:	30 91 a1 02 	lds	r19, 0x02A1	;  0x8002a1
     df0:	23 e0       	ldi	r18, 0x03	; 3
     df2:	23 0f       	add	r18, r19
     df4:	2d 37       	cpi	r18, 0x7D	; 125
     df6:	58 f5       	brcc	.+86     	;  0xe4e
     df8:	01 96       	adiw	r24, 0x01	; 1
     dfa:	a1 1d       	adc	r26, r1
     dfc:	b1 1d       	adc	r27, r1
     dfe:	20 93 a1 02 	sts	0x02A1, r18	;  0x8002a1
     e02:	80 93 a2 02 	sts	0x02A2, r24	;  0x8002a2
     e06:	90 93 a3 02 	sts	0x02A3, r25	;  0x8002a3
     e0a:	a0 93 a4 02 	sts	0x02A4, r26	;  0x8002a4
     e0e:	b0 93 a5 02 	sts	0x02A5, r27	;  0x8002a5
     e12:	80 91 a6 02 	lds	r24, 0x02A6	;  0x8002a6
     e16:	90 91 a7 02 	lds	r25, 0x02A7	;  0x8002a7
     e1a:	a0 91 a8 02 	lds	r26, 0x02A8	;  0x8002a8
     e1e:	b0 91 a9 02 	lds	r27, 0x02A9	;  0x8002a9
     e22:	01 96       	adiw	r24, 0x01	; 1
     e24:	a1 1d       	adc	r26, r1
     e26:	b1 1d       	adc	r27, r1
     e28:	80 93 a6 02 	sts	0x02A6, r24	;  0x8002a6
     e2c:	90 93 a7 02 	sts	0x02A7, r25	;  0x8002a7
     e30:	a0 93 a8 02 	sts	0x02A8, r26	;  0x8002a8
     e34:	b0 93 a9 02 	sts	0x02A9, r27	;  0x8002a9
     e38:	bf 91       	pop	r27
     e3a:	af 91       	pop	r26
     e3c:	9f 91       	pop	r25
     e3e:	8f 91       	pop	r24
     e40:	3f 91       	pop	r19
     e42:	2f 91       	pop	r18
     e44:	0f 90       	pop	r0
     e46:	0f be       	out	0x3f, r0	; 63
     e48:	0f 90       	pop	r0
     e4a:	1f 90       	pop	r1
     e4c:	18 95       	reti
     e4e:	26 e8       	ldi	r18, 0x86	; 134
     e50:	23 0f       	add	r18, r19
     e52:	02 96       	adiw	r24, 0x02	; 2
     e54:	a1 1d       	adc	r26, r1
     e56:	b1 1d       	adc	r27, r1
     e58:	d2 cf       	rjmp	.-92     	;  0xdfe
     e5a:	1f 92       	push	r1
     e5c:	0f 92       	push	r0
     e5e:	0f b6       	in	r0, 0x3f	; 63
     e60:	0f 92       	push	r0
     e62:	11 24       	eor	r1, r1
     e64:	0b b6       	in	r0, 0x3b	; 59
     e66:	0f 92       	push	r0
     e68:	2f 93       	push	r18
     e6a:	3f 93       	push	r19
     e6c:	4f 93       	push	r20
     e6e:	5f 93       	push	r21
     e70:	6f 93       	push	r22
     e72:	7f 93       	push	r23
     e74:	8f 93       	push	r24
     e76:	9f 93       	push	r25
     e78:	af 93       	push	r26
     e7a:	bf 93       	push	r27
     e7c:	ef 93       	push	r30
     e7e:	ff 93       	push	r31
     e80:	e0 91 0e 02 	lds	r30, 0x020E	;  0x80020e
     e84:	f0 91 0f 02 	lds	r31, 0x020F	;  0x80020f
     e88:	19 95       	eicall
     e8a:	ff 91       	pop	r31
     e8c:	ef 91       	pop	r30
     e8e:	bf 91       	pop	r27
     e90:	af 91       	pop	r26
     e92:	9f 91       	pop	r25
     e94:	8f 91       	pop	r24
     e96:	7f 91       	pop	r23
     e98:	6f 91       	pop	r22
     e9a:	5f 91       	pop	r21
     e9c:	4f 91       	pop	r20
     e9e:	3f 91       	pop	r19
     ea0:	2f 91       	pop	r18
     ea2:	0f 90       	pop	r0
     ea4:	0b be       	out	0x3b, r0	; 59
     ea6:	0f 90       	pop	r0
     ea8:	0f be       	out	0x3f, r0	; 63
     eaa:	0f 90       	pop	r0
     eac:	1f 90       	pop	r1
     eae:	18 95       	reti
     eb0:	1f 92       	push	r1
     eb2:	0f 92       	push	r0
     eb4:	0f b6       	in	r0, 0x3f	; 63
     eb6:	0f 92       	push	r0
     eb8:	11 24       	eor	r1, r1
     eba:	0b b6       	in	r0, 0x3b	; 59
     ebc:	0f 92       	push	r0
     ebe:	2f 93       	push	r18
     ec0:	3f 93       	push	r19
     ec2:	4f 93       	push	r20
     ec4:	5f 93       	push	r21
     ec6:	6f 93       	push	r22
     ec8:	7f 93       	push	r23
     eca:	8f 93       	push	r24
     ecc:	9f 93       	push	r25
     ece:	af 93       	push	r26
     ed0:	bf 93       	push	r27
     ed2:	ef 93       	push	r30
     ed4:	ff 93       	push	r31
     ed6:	e0 91 0c 02 	lds	r30, 0x020C	;  0x80020c
     eda:	f0 91 0d 02 	lds	r31, 0x020D	;  0x80020d
     ede:	19 95       	eicall
     ee0:	ff 91       	pop	r31
     ee2:	ef 91       	pop	r30
     ee4:	bf 91       	pop	r27
     ee6:	af 91       	pop	r26
     ee8:	9f 91       	pop	r25
     eea:	8f 91       	pop	r24
     eec:	7f 91       	pop	r23
     eee:	6f 91       	pop	r22
     ef0:	5f 91       	pop	r21
     ef2:	4f 91       	pop	r20
     ef4:	3f 91       	pop	r19
     ef6:	2f 91       	pop	r18
     ef8:	0f 90       	pop	r0
     efa:	0b be       	out	0x3b, r0	; 59
     efc:	0f 90       	pop	r0
     efe:	0f be       	out	0x3f, r0	; 63
     f00:	0f 90       	pop	r0
     f02:	1f 90       	pop	r1
     f04:	18 95       	reti
     f06:	1f 92       	push	r1
     f08:	0f 92       	push	r0
     f0a:	0f b6       	in	r0, 0x3f	; 63
     f0c:	0f 92       	push	r0
     f0e:	11 24       	eor	r1, r1
     f10:	0b b6       	in	r0, 0x3b	; 59
     f12:	0f 92       	push	r0
     f14:	2f 93       	push	r18
     f16:	3f 93       	push	r19
     f18:	4f 93       	push	r20
     f1a:	5f 93       	push	r21
     f1c:	6f 93       	push	r22
     f1e:	7f 93       	push	r23
     f20:	8f 93       	push	r24
     f22:	9f 93       	push	r25
     f24:	af 93       	push	r26
     f26:	bf 93       	push	r27
     f28:	ef 93       	push	r30
     f2a:	ff 93       	push	r31
     f2c:	e0 91 02 02 	lds	r30, 0x0202	;  0x800202
     f30:	f0 91 03 02 	lds	r31, 0x0203	;  0x800203
     f34:	19 95       	eicall
     f36:	ff 91       	pop	r31
     f38:	ef 91       	pop	r30
     f3a:	bf 91       	pop	r27
     f3c:	af 91       	pop	r26
     f3e:	9f 91       	pop	r25
     f40:	8f 91       	pop	r24
     f42:	7f 91       	pop	r23
     f44:	6f 91       	pop	r22
     f46:	5f 91       	pop	r21
     f48:	4f 91       	pop	r20
     f4a:	3f 91       	pop	r19
     f4c:	2f 91       	pop	r18
     f4e:	0f 90       	pop	r0
     f50:	0b be       	out	0x3b, r0	; 59
     f52:	0f 90       	pop	r0
     f54:	0f be       	out	0x3f, r0	; 63
     f56:	0f 90       	pop	r0
     f58:	1f 90       	pop	r1
     f5a:	18 95       	reti
     f5c:	1f 92       	push	r1
     f5e:	0f 92       	push	r0
     f60:	0f b6       	in	r0, 0x3f	; 63
     f62:	0f 92       	push	r0
     f64:	11 24       	eor	r1, r1
     f66:	0b b6       	in	r0, 0x3b	; 59
     f68:	0f 92       	push	r0
     f6a:	2f 93       	push	r18
     f6c:	3f 93       	push	r19
     f6e:	4f 93       	push	r20
     f70:	5f 93       	push	r21
     f72:	6f 93       	push	r22
     f74:	7f 93       	push	r23
     f76:	8f 93       	push	r24
     f78:	9f 93       	push	r25
     f7a:	af 93       	push	r26
     f7c:	bf 93       	push	r27
     f7e:	ef 93       	push	r30
     f80:	ff 93       	push	r31
     f82:	e0 91 00 02 	lds	r30, 0x0200	;  0x800200
     f86:	f0 91 01 02 	lds	r31, 0x0201	;  0x800201
     f8a:	19 95       	eicall
     f8c:	ff 91       	pop	r31
     f8e:	ef 91       	pop	r30
     f90:	bf 91       	pop	r27
     f92:	af 91       	pop	r26
     f94:	9f 91       	pop	r25
     f96:	8f 91       	pop	r24
     f98:	7f 91       	pop	r23
     f9a:	6f 91       	pop	r22
     f9c:	5f 91       	pop	r21
     f9e:	4f 91       	pop	r20
     fa0:	3f 91       	pop	r19
     fa2:	2f 91       	pop	r18
     fa4:	0f 90       	pop	r0
     fa6:	0b be       	out	0x3b, r0	; 59
     fa8:	0f 90       	pop	r0
     faa:	0f be       	out	0x3f, r0	; 63
     fac:	0f 90       	pop	r0
     fae:	1f 90       	pop	r1
     fb0:	18 95       	reti
     fb2:	1f 92       	push	r1
     fb4:	0f 92       	push	r0
     fb6:	0f b6       	in	r0, 0x3f	; 63
     fb8:	0f 92       	push	r0
     fba:	11 24       	eor	r1, r1
     fbc:	0b b6       	in	r0, 0x3b	; 59
     fbe:	0f 92       	push	r0
     fc0:	2f 93       	push	r18
     fc2:	3f 93       	push	r19
     fc4:	4f 93       	push	r20
     fc6:	5f 93       	push	r21
     fc8:	6f 93       	push	r22
     fca:	7f 93       	push	r23
     fcc:	8f 93       	push	r24
     fce:	9f 93       	push	r25
     fd0:	af 93       	push	r26
     fd2:	bf 93       	push	r27
     fd4:	ef 93       	push	r30
     fd6:	ff 93       	push	r31
     fd8:	e0 91 0a 02 	lds	r30, 0x020A	;  0x80020a
     fdc:	f0 91 0b 02 	lds	r31, 0x020B	;  0x80020b
     fe0:	19 95       	eicall
     fe2:	ff 91       	pop	r31
     fe4:	ef 91       	pop	r30
     fe6:	bf 91       	pop	r27
     fe8:	af 91       	pop	r26
     fea:	9f 91       	pop	r25
     fec:	8f 91       	pop	r24
     fee:	7f 91       	pop	r23
     ff0:	6f 91       	pop	r22
     ff2:	5f 91       	pop	r21
     ff4:	4f 91       	pop	r20
     ff6:	3f 91       	pop	r19
     ff8:	2f 91       	pop	r18
     ffa:	0f 90       	pop	r0
     ffc:	0b be       	out	0x3b, r0	; 59
     ffe:	0f 90       	pop	r0
    1000:	0f be       	out	0x3f, r0	; 63
    1002:	0f 90       	pop	r0
    1004:	1f 90       	pop	r1
    1006:	18 95       	reti
    1008:	1f 92       	push	r1
    100a:	0f 92       	push	r0
    100c:	0f b6       	in	r0, 0x3f	; 63
    100e:	0f 92       	push	r0
    1010:	11 24       	eor	r1, r1
    1012:	0b b6       	in	r0, 0x3b	; 59
    1014:	0f 92       	push	r0
    1016:	2f 93       	push	r18
    1018:	3f 93       	push	r19
    101a:	4f 93       	push	r20
    101c:	5f 93       	push	r21
    101e:	6f 93       	push	r22
    1020:	7f 93       	push	r23
    1022:	8f 93       	push	r24
    1024:	9f 93       	push	r25
    1026:	af 93       	push	r26
    1028:	bf 93       	push	r27
    102a:	ef 93       	push	r30
    102c:	ff 93       	push	r31
    102e:	e0 91 08 02 	lds	r30, 0x0208	;  0x800208
    1032:	f0 91 09 02 	lds	r31, 0x0209	;  0x800209
    1036:	19 95       	eicall
    1038:	ff 91       	pop	r31
    103a:	ef 91       	pop	r30
    103c:	bf 91       	pop	r27
    103e:	af 91       	pop	r26
    1040:	9f 91       	pop	r25
    1042:	8f 91       	pop	r24
    1044:	7f 91       	pop	r23
    1046:	6f 91       	pop	r22
    1048:	5f 91       	pop	r21
    104a:	4f 91       	pop	r20
    104c:	3f 91       	pop	r19
    104e:	2f 91       	pop	r18
    1050:	0f 90       	pop	r0
    1052:	0b be       	out	0x3b, r0	; 59
    1054:	0f 90       	pop	r0
    1056:	0f be       	out	0x3f, r0	; 63
    1058:	0f 90       	pop	r0
    105a:	1f 90       	pop	r1
    105c:	18 95       	reti
    105e:	1f 92       	push	r1
    1060:	0f 92       	push	r0
    1062:	0f b6       	in	r0, 0x3f	; 63
    1064:	0f 92       	push	r0
    1066:	11 24       	eor	r1, r1
    1068:	0b b6       	in	r0, 0x3b	; 59
    106a:	0f 92       	push	r0
    106c:	2f 93       	push	r18
    106e:	3f 93       	push	r19
    1070:	4f 93       	push	r20
    1072:	5f 93       	push	r21
    1074:	6f 93       	push	r22
    1076:	7f 93       	push	r23
    1078:	8f 93       	push	r24
    107a:	9f 93       	push	r25
    107c:	af 93       	push	r26
    107e:	bf 93       	push	r27
    1080:	ef 93       	push	r30
    1082:	ff 93       	push	r31
    1084:	e0 91 06 02 	lds	r30, 0x0206	;  0x800206
    1088:	f0 91 07 02 	lds	r31, 0x0207	;  0x800207
    108c:	19 95       	eicall
    108e:	ff 91       	pop	r31
    1090:	ef 91       	pop	r30
    1092:	bf 91       	pop	r27
    1094:	af 91       	pop	r26
    1096:	9f 91       	pop	r25
    1098:	8f 91       	pop	r24
    109a:	7f 91       	pop	r23
    109c:	6f 91       	pop	r22
    109e:	5f 91       	pop	r21
    10a0:	4f 91       	pop	r20
    10a2:	3f 91       	pop	r19
    10a4:	2f 91       	pop	r18
    10a6:	0f 90       	pop	r0
    10a8:	0b be       	out	0x3b, r0	; 59
    10aa:	0f 90       	pop	r0
    10ac:	0f be       	out	0x3f, r0	; 63
    10ae:	0f 90       	pop	r0
    10b0:	1f 90       	pop	r1
    10b2:	18 95       	reti
    10b4:	1f 92       	push	r1
    10b6:	0f 92       	push	r0
    10b8:	0f b6       	in	r0, 0x3f	; 63
    10ba:	0f 92       	push	r0
    10bc:	11 24       	eor	r1, r1
    10be:	0b b6       	in	r0, 0x3b	; 59
    10c0:	0f 92       	push	r0
    10c2:	2f 93       	push	r18
    10c4:	3f 93       	push	r19
    10c6:	4f 93       	push	r20
    10c8:	5f 93       	push	r21
    10ca:	6f 93       	push	r22
    10cc:	7f 93       	push	r23
    10ce:	8f 93       	push	r24
    10d0:	9f 93       	push	r25
    10d2:	af 93       	push	r26
    10d4:	bf 93       	push	r27
    10d6:	ef 93       	push	r30
    10d8:	ff 93       	push	r31
    10da:	e0 91 04 02 	lds	r30, 0x0204	;  0x800204
    10de:	f0 91 05 02 	lds	r31, 0x0205	;  0x800205
    10e2:	19 95       	eicall
    10e4:	ff 91       	pop	r31
    10e6:	ef 91       	pop	r30
    10e8:	bf 91       	pop	r27
    10ea:	af 91       	pop	r26
    10ec:	9f 91       	pop	r25
    10ee:	8f 91       	pop	r24
    10f0:	7f 91       	pop	r23
    10f2:	6f 91       	pop	r22
    10f4:	5f 91       	pop	r21
    10f6:	4f 91       	pop	r20
    10f8:	3f 91       	pop	r19
    10fa:	2f 91       	pop	r18
    10fc:	0f 90       	pop	r0
    10fe:	0b be       	out	0x3b, r0	; 59
    1100:	0f 90       	pop	r0
    1102:	0f be       	out	0x3f, r0	; 63
    1104:	0f 90       	pop	r0
    1106:	1f 90       	pop	r1
    1108:	18 95       	reti
    110a:	1f 92       	push	r1
    110c:	0f 92       	push	r0
    110e:	0f b6       	in	r0, 0x3f	; 63
    1110:	0f 92       	push	r0
    1112:	11 24       	eor	r1, r1
    1114:	0b b6       	in	r0, 0x3b	; 59
    1116:	0f 92       	push	r0
    1118:	2f 93       	push	r18
    111a:	3f 93       	push	r19
    111c:	4f 93       	push	r20
    111e:	5f 93       	push	r21
    1120:	6f 93       	push	r22
    1122:	7f 93       	push	r23
    1124:	8f 93       	push	r24
    1126:	9f 93       	push	r25
    1128:	af 93       	push	r26
    112a:	bf 93       	push	r27
    112c:	ef 93       	push	r30
    112e:	ff 93       	push	r31
    1130:	8a ea       	ldi	r24, 0xAA	; 170
    1132:	92 e0       	ldi	r25, 0x02	; 2
    1134:	0e 94 58 03 	call	0x6b0	;  0x6b0
    1138:	ff 91       	pop	r31
    113a:	ef 91       	pop	r30
    113c:	bf 91       	pop	r27
    113e:	af 91       	pop	r26
    1140:	9f 91       	pop	r25
    1142:	8f 91       	pop	r24
    1144:	7f 91       	pop	r23
    1146:	6f 91       	pop	r22
    1148:	5f 91       	pop	r21
    114a:	4f 91       	pop	r20
    114c:	3f 91       	pop	r19
    114e:	2f 91       	pop	r18
    1150:	0f 90       	pop	r0
    1152:	0b be       	out	0x3b, r0	; 59
    1154:	0f 90       	pop	r0
    1156:	0f be       	out	0x3f, r0	; 63
    1158:	0f 90       	pop	r0
    115a:	1f 90       	pop	r1
    115c:	18 95       	reti
    115e:	1f 92       	push	r1
    1160:	0f 92       	push	r0
    1162:	0f b6       	in	r0, 0x3f	; 63
    1164:	0f 92       	push	r0
    1166:	11 24       	eor	r1, r1
    1168:	0b b6       	in	r0, 0x3b	; 59
    116a:	0f 92       	push	r0
    116c:	2f 93       	push	r18
    116e:	8f 93       	push	r24
    1170:	9f 93       	push	r25
    1172:	ef 93       	push	r30
    1174:	ff 93       	push	r31
    1176:	e0 91 ba 02 	lds	r30, 0x02BA	;  0x8002ba
    117a:	f0 91 bb 02 	lds	r31, 0x02BB	;  0x8002bb
    117e:	80 81       	ld	r24, Z
    1180:	e0 91 c0 02 	lds	r30, 0x02C0	;  0x8002c0
    1184:	f0 91 c1 02 	lds	r31, 0x02C1	;  0x8002c1
    1188:	82 fd       	sbrc	r24, 2
    118a:	1d c0       	rjmp	.+58     	;  0x11c6
    118c:	90 81       	ld	r25, Z
    118e:	80 91 c3 02 	lds	r24, 0x02C3	;  0x8002c3
    1192:	8f 5f       	subi	r24, 0xFF	; 255
    1194:	8f 73       	andi	r24, 0x3F	; 63
    1196:	20 91 c4 02 	lds	r18, 0x02C4	;  0x8002c4
    119a:	82 17       	cp	r24, r18
    119c:	41 f0       	breq	.+16     	;  0x11ae
    119e:	e0 91 c3 02 	lds	r30, 0x02C3	;  0x8002c3
    11a2:	f0 e0       	ldi	r31, 0x00	; 0
    11a4:	e6 55       	subi	r30, 0x56	; 86
    11a6:	fd 4f       	sbci	r31, 0xFD	; 253
    11a8:	95 8f       	std	Z+29, r25	; 0x1d
    11aa:	80 93 c3 02 	sts	0x02C3, r24	;  0x8002c3
    11ae:	ff 91       	pop	r31
    11b0:	ef 91       	pop	r30
    11b2:	9f 91       	pop	r25
    11b4:	8f 91       	pop	r24
    11b6:	2f 91       	pop	r18
    11b8:	0f 90       	pop	r0
    11ba:	0b be       	out	0x3b, r0	; 59
    11bc:	0f 90       	pop	r0
    11be:	0f be       	out	0x3f, r0	; 63
    11c0:	0f 90       	pop	r0
    11c2:	1f 90       	pop	r1
    11c4:	18 95       	reti
    11c6:	80 81       	ld	r24, Z
    11c8:	f2 cf       	rjmp	.-28     	;  0x11ae
    11ca:	1f 92       	push	r1
    11cc:	0f 92       	push	r0
    11ce:	0f b6       	in	r0, 0x3f	; 63
    11d0:	0f 92       	push	r0
    11d2:	11 24       	eor	r1, r1
    11d4:	0b b6       	in	r0, 0x3b	; 59
    11d6:	0f 92       	push	r0
    11d8:	2f 93       	push	r18
    11da:	3f 93       	push	r19
    11dc:	4f 93       	push	r20
    11de:	5f 93       	push	r21
    11e0:	6f 93       	push	r22
    11e2:	7f 93       	push	r23
    11e4:	8f 93       	push	r24
    11e6:	9f 93       	push	r25
    11e8:	af 93       	push	r26
    11ea:	bf 93       	push	r27
    11ec:	ef 93       	push	r30
    11ee:	ff 93       	push	r31
    11f0:	87 e4       	ldi	r24, 0x47	; 71
    11f2:	93 e0       	ldi	r25, 0x03	; 3
    11f4:	0e 94 58 03 	call	0x6b0	;  0x6b0
    11f8:	ff 91       	pop	r31
    11fa:	ef 91       	pop	r30
    11fc:	bf 91       	pop	r27
    11fe:	af 91       	pop	r26
    1200:	9f 91       	pop	r25
    1202:	8f 91       	pop	r24
    1204:	7f 91       	pop	r23
    1206:	6f 91       	pop	r22
    1208:	5f 91       	pop	r21
    120a:	4f 91       	pop	r20
    120c:	3f 91       	pop	r19
    120e:	2f 91       	pop	r18
    1210:	0f 90       	pop	r0
    1212:	0b be       	out	0x3b, r0	; 59
    1214:	0f 90       	pop	r0
    1216:	0f be       	out	0x3f, r0	; 63
    1218:	0f 90       	pop	r0
    121a:	1f 90       	pop	r1
    121c:	18 95       	reti
    121e:	1f 92       	push	r1
    1220:	0f 92       	push	r0
    1222:	0f b6       	in	r0, 0x3f	; 63
    1224:	0f 92       	push	r0
    1226:	11 24       	eor	r1, r1
    1228:	0b b6       	in	r0, 0x3b	; 59
    122a:	0f 92       	push	r0
    122c:	2f 93       	push	r18
    122e:	8f 93       	push	r24
    1230:	9f 93       	push	r25
    1232:	ef 93       	push	r30
    1234:	ff 93       	push	r31
    1236:	e0 91 57 03 	lds	r30, 0x0357	;  0x800357
    123a:	f0 91 58 03 	lds	r31, 0x0358	;  0x800358
    123e:	80 81       	ld	r24, Z
    1240:	e0 91 5d 03 	lds	r30, 0x035D	;  0x80035d
    1244:	f0 91 5e 03 	lds	r31, 0x035E	;  0x80035e
    1248:	82 fd       	sbrc	r24, 2
    124a:	1d c0       	rjmp	.+58     	;  0x1286
    124c:	90 81       	ld	r25, Z
    124e:	80 91 60 03 	lds	r24, 0x0360	;  0x800360
    1252:	8f 5f       	subi	r24, 0xFF	; 255
    1254:	8f 73       	andi	r24, 0x3F	; 63
    1256:	20 91 61 03 	lds	r18, 0x0361	;  0x800361
    125a:	82 17       	cp	r24, r18
    125c:	41 f0       	breq	.+16     	;  0x126e
    125e:	e0 91 60 03 	lds	r30, 0x0360	;  0x800360
    1262:	f0 e0       	ldi	r31, 0x00	; 0
    1264:	e9 5b       	subi	r30, 0xB9	; 185
    1266:	fc 4f       	sbci	r31, 0xFC	; 252
    1268:	95 8f       	std	Z+29, r25	; 0x1d
    126a:	80 93 60 03 	sts	0x0360, r24	;  0x800360
    126e:	ff 91       	pop	r31
    1270:	ef 91       	pop	r30
    1272:	9f 91       	pop	r25
    1274:	8f 91       	pop	r24
    1276:	2f 91       	pop	r18
    1278:	0f 90       	pop	r0
    127a:	0b be       	out	0x3b, r0	; 59
    127c:	0f 90       	pop	r0
    127e:	0f be       	out	0x3f, r0	; 63
    1280:	0f 90       	pop	r0
    1282:	1f 90       	pop	r1
    1284:	18 95       	reti
    1286:	80 81       	ld	r24, Z
    1288:	f2 cf       	rjmp	.-28     	;  0x126e
    128a:	1f 92       	push	r1
    128c:	0f 92       	push	r0
    128e:	0f b6       	in	r0, 0x3f	; 63
    1290:	0f 92       	push	r0
    1292:	11 24       	eor	r1, r1
    1294:	0b b6       	in	r0, 0x3b	; 59
    1296:	0f 92       	push	r0
    1298:	2f 93       	push	r18
    129a:	3f 93       	push	r19
    129c:	4f 93       	push	r20
    129e:	5f 93       	push	r21
    12a0:	6f 93       	push	r22
    12a2:	7f 93       	push	r23
    12a4:	8f 93       	push	r24
    12a6:	9f 93       	push	r25
    12a8:	af 93       	push	r26
    12aa:	bf 93       	push	r27
    12ac:	ef 93       	push	r30
    12ae:	ff 93       	push	r31
    12b0:	48 e2       	ldi	r20, 0x28	; 40
    12b2:	51 e0       	ldi	r21, 0x01	; 1
    12b4:	64 e2       	ldi	r22, 0x24	; 36
    12b6:	71 e0       	ldi	r23, 0x01	; 1
    12b8:	90 e0       	ldi	r25, 0x00	; 0
    12ba:	80 e0       	ldi	r24, 0x00	; 0
    12bc:	0e 94 e0 04 	call	0x9c0	;  0x9c0
    12c0:	ff 91       	pop	r31
    12c2:	ef 91       	pop	r30
    12c4:	bf 91       	pop	r27
    12c6:	af 91       	pop	r26
    12c8:	9f 91       	pop	r25
    12ca:	8f 91       	pop	r24
    12cc:	7f 91       	pop	r23
    12ce:	6f 91       	pop	r22
    12d0:	5f 91       	pop	r21
    12d2:	4f 91       	pop	r20
    12d4:	3f 91       	pop	r19
    12d6:	2f 91       	pop	r18
    12d8:	0f 90       	pop	r0
    12da:	0b be       	out	0x3b, r0	; 59
    12dc:	0f 90       	pop	r0
    12de:	0f be       	out	0x3f, r0	; 63
    12e0:	0f 90       	pop	r0
    12e2:	1f 90       	pop	r1
    12e4:	18 95       	reti
    12e6:	1f 92       	push	r1
    12e8:	0f 92       	push	r0
    12ea:	0f b6       	in	r0, 0x3f	; 63
    12ec:	0f 92       	push	r0
    12ee:	11 24       	eor	r1, r1
    12f0:	0b b6       	in	r0, 0x3b	; 59
    12f2:	0f 92       	push	r0
    12f4:	2f 93       	push	r18
    12f6:	3f 93       	push	r19
    12f8:	4f 93       	push	r20
    12fa:	5f 93       	push	r21
    12fc:	6f 93       	push	r22
    12fe:	7f 93       	push	r23
    1300:	8f 93       	push	r24
    1302:	9f 93       	push	r25
    1304:	af 93       	push	r26
    1306:	bf 93       	push	r27
    1308:	ef 93       	push	r30
    130a:	ff 93       	push	r31
    130c:	48 ea       	ldi	r20, 0xA8	; 168
    130e:	50 e0       	ldi	r21, 0x00	; 0
    1310:	64 ea       	ldi	r22, 0xA4	; 164
    1312:	70 e0       	ldi	r23, 0x00	; 0
    1314:	83 e0       	ldi	r24, 0x03	; 3
    1316:	90 e0       	ldi	r25, 0x00	; 0
    1318:	0e 94 e0 04 	call	0x9c0	;  0x9c0
    131c:	ff 91       	pop	r31
    131e:	ef 91       	pop	r30
    1320:	bf 91       	pop	r27
    1322:	af 91       	pop	r26
    1324:	9f 91       	pop	r25
    1326:	8f 91       	pop	r24
    1328:	7f 91       	pop	r23
    132a:	6f 91       	pop	r22
    132c:	5f 91       	pop	r21
    132e:	4f 91       	pop	r20
    1330:	3f 91       	pop	r19
    1332:	2f 91       	pop	r18
    1334:	0f 90       	pop	r0
    1336:	0b be       	out	0x3b, r0	; 59
    1338:	0f 90       	pop	r0
    133a:	0f be       	out	0x3f, r0	; 63
    133c:	0f 90       	pop	r0
    133e:	1f 90       	pop	r1
    1340:	18 95       	reti
    1342:	1f 92       	push	r1
    1344:	0f 92       	push	r0
    1346:	0f b6       	in	r0, 0x3f	; 63
    1348:	0f 92       	push	r0
    134a:	11 24       	eor	r1, r1
    134c:	0b b6       	in	r0, 0x3b	; 59
    134e:	0f 92       	push	r0
    1350:	2f 93       	push	r18
    1352:	3f 93       	push	r19
    1354:	4f 93       	push	r20
    1356:	5f 93       	push	r21
    1358:	6f 93       	push	r22
    135a:	7f 93       	push	r23
    135c:	8f 93       	push	r24
    135e:	9f 93       	push	r25
    1360:	af 93       	push	r26
    1362:	bf 93       	push	r27
    1364:	ef 93       	push	r30
    1366:	ff 93       	push	r31
    1368:	48 e9       	ldi	r20, 0x98	; 152
    136a:	50 e0       	ldi	r21, 0x00	; 0
    136c:	64 e9       	ldi	r22, 0x94	; 148
    136e:	70 e0       	ldi	r23, 0x00	; 0
    1370:	82 e0       	ldi	r24, 0x02	; 2
    1372:	90 e0       	ldi	r25, 0x00	; 0
    1374:	0e 94 e0 04 	call	0x9c0	;  0x9c0
    1378:	ff 91       	pop	r31
    137a:	ef 91       	pop	r30
    137c:	bf 91       	pop	r27
    137e:	af 91       	pop	r26
    1380:	9f 91       	pop	r25
    1382:	8f 91       	pop	r24
    1384:	7f 91       	pop	r23
    1386:	6f 91       	pop	r22
    1388:	5f 91       	pop	r21
    138a:	4f 91       	pop	r20
    138c:	3f 91       	pop	r19
    138e:	2f 91       	pop	r18
    1390:	0f 90       	pop	r0
    1392:	0b be       	out	0x3b, r0	; 59
    1394:	0f 90       	pop	r0
    1396:	0f be       	out	0x3f, r0	; 63
    1398:	0f 90       	pop	r0
    139a:	1f 90       	pop	r1
    139c:	18 95       	reti
    139e:	1f 92       	push	r1
    13a0:	0f 92       	push	r0
    13a2:	0f b6       	in	r0, 0x3f	; 63
    13a4:	0f 92       	push	r0
    13a6:	11 24       	eor	r1, r1
    13a8:	0b b6       	in	r0, 0x3b	; 59
    13aa:	0f 92       	push	r0
    13ac:	2f 93       	push	r18
    13ae:	3f 93       	push	r19
    13b0:	4f 93       	push	r20
    13b2:	5f 93       	push	r21
    13b4:	6f 93       	push	r22
    13b6:	7f 93       	push	r23
    13b8:	8f 93       	push	r24
    13ba:	9f 93       	push	r25
    13bc:	af 93       	push	r26
    13be:	bf 93       	push	r27
    13c0:	ef 93       	push	r30
    13c2:	ff 93       	push	r31
    13c4:	48 e8       	ldi	r20, 0x88	; 136
    13c6:	50 e0       	ldi	r21, 0x00	; 0
    13c8:	64 e8       	ldi	r22, 0x84	; 132
    13ca:	70 e0       	ldi	r23, 0x00	; 0
    13cc:	81 e0       	ldi	r24, 0x01	; 1
    13ce:	90 e0       	ldi	r25, 0x00	; 0
    13d0:	0e 94 e0 04 	call	0x9c0	;  0x9c0
    13d4:	ff 91       	pop	r31
    13d6:	ef 91       	pop	r30
    13d8:	bf 91       	pop	r27
    13da:	af 91       	pop	r26
    13dc:	9f 91       	pop	r25
    13de:	8f 91       	pop	r24
    13e0:	7f 91       	pop	r23
    13e2:	6f 91       	pop	r22
    13e4:	5f 91       	pop	r21
    13e6:	4f 91       	pop	r20
    13e8:	3f 91       	pop	r19
    13ea:	2f 91       	pop	r18
    13ec:	0f 90       	pop	r0
    13ee:	0b be       	out	0x3b, r0	; 59
    13f0:	0f 90       	pop	r0
    13f2:	0f be       	out	0x3f, r0	; 63
    13f4:	0f 90       	pop	r0
    13f6:	1f 90       	pop	r1
    13f8:	18 95       	reti
    13fa:	cf 92       	push	r12
    13fc:	df 92       	push	r13
    13fe:	ef 92       	push	r14
    1400:	ff 92       	push	r15
    1402:	0f 93       	push	r16
    1404:	1f 93       	push	r17
    1406:	e8 2f       	mov	r30, r24
    1408:	f9 2f       	mov	r31, r25
    140a:	05 c0       	rjmp	.+10     	;  0x1416
    140c:	01 50       	subi	r16, 0x01	; 1
    140e:	11 09       	sbc	r17, r1
    1410:	21 09       	sbc	r18, r1
    1412:	31 09       	sbc	r19, r1
    1414:	61 f1       	breq	.+88     	;  0x146e
    1416:	90 81       	ld	r25, Z
    1418:	96 23       	and	r25, r22
    141a:	94 17       	cp	r25, r20
    141c:	b9 f3       	breq	.-18     	;  0x140c
    141e:	05 c0       	rjmp	.+10     	;  0x142a
    1420:	01 50       	subi	r16, 0x01	; 1
    1422:	11 09       	sbc	r17, r1
    1424:	21 09       	sbc	r18, r1
    1426:	31 09       	sbc	r19, r1
    1428:	11 f1       	breq	.+68     	;  0x146e
    142a:	90 81       	ld	r25, Z
    142c:	96 23       	and	r25, r22
    142e:	94 13       	cpse	r25, r20
    1430:	f7 cf       	rjmp	.-18     	;  0x1420
    1432:	c1 2c       	mov	r12, r1
    1434:	d1 2c       	mov	r13, r1
    1436:	e1 2c       	mov	r14, r1
    1438:	f1 2c       	mov	r15, r1
    143a:	0a c0       	rjmp	.+20     	;  0x1450
    143c:	8f ef       	ldi	r24, 0xFF	; 255
    143e:	c8 1a       	sub	r12, r24
    1440:	d8 0a       	sbc	r13, r24
    1442:	e8 0a       	sbc	r14, r24
    1444:	f8 0a       	sbc	r15, r24
    1446:	0c 15       	cp	r16, r12
    1448:	1d 05       	cpc	r17, r13
    144a:	2e 05       	cpc	r18, r14
    144c:	3f 05       	cpc	r19, r15
    144e:	79 f0       	breq	.+30     	;  0x146e
    1450:	80 81       	ld	r24, Z
    1452:	86 23       	and	r24, r22
    1454:	84 17       	cp	r24, r20
    1456:	91 f3       	breq	.-28     	;  0x143c
    1458:	6c 2d       	mov	r22, r12
    145a:	7d 2d       	mov	r23, r13
    145c:	8e 2d       	mov	r24, r14
    145e:	9f 2d       	mov	r25, r15
    1460:	1f 91       	pop	r17
    1462:	0f 91       	pop	r16
    1464:	ff 90       	pop	r15
    1466:	ef 90       	pop	r14
    1468:	df 90       	pop	r13
    146a:	cf 90       	pop	r12
    146c:	08 95       	ret
    146e:	60 e0       	ldi	r22, 0x00	; 0
    1470:	70 e0       	ldi	r23, 0x00	; 0
    1472:	80 e0       	ldi	r24, 0x00	; 0
    1474:	90 e0       	ldi	r25, 0x00	; 0
    1476:	1f 91       	pop	r17
    1478:	0f 91       	pop	r16
    147a:	ff 90       	pop	r15
    147c:	ef 90       	pop	r14
    147e:	df 90       	pop	r13
    1480:	cf 90       	pop	r12
    1482:	08 95       	ret
    1484:	10 92 ad 02 	sts	0x02AD, r1	;  0x8002ad
    1488:	10 92 ac 02 	sts	0x02AC, r1	;  0x8002ac
    148c:	48 ee       	ldi	r20, 0xE8	; 232
    148e:	53 e0       	ldi	r21, 0x03	; 3
    1490:	60 e0       	ldi	r22, 0x00	; 0
    1492:	70 e0       	ldi	r23, 0x00	; 0
    1494:	40 93 ae 02 	sts	0x02AE, r20	;  0x8002ae
    1498:	50 93 af 02 	sts	0x02AF, r21	;  0x8002af
    149c:	60 93 b0 02 	sts	0x02B0, r22	;  0x8002b0
    14a0:	70 93 b1 02 	sts	0x02B1, r23	;  0x8002b1
    14a4:	88 e1       	ldi	r24, 0x18	; 24
    14a6:	92 e0       	ldi	r25, 0x02	; 2
    14a8:	90 93 ab 02 	sts	0x02AB, r25	;  0x8002ab
    14ac:	80 93 aa 02 	sts	0x02AA, r24	;  0x8002aa
    14b0:	2d ec       	ldi	r18, 0xCD	; 205
    14b2:	30 e0       	ldi	r19, 0x00	; 0
    14b4:	30 93 b7 02 	sts	0x02B7, r19	;  0x8002b7
    14b8:	20 93 b6 02 	sts	0x02B6, r18	;  0x8002b6
    14bc:	2c ec       	ldi	r18, 0xCC	; 204
    14be:	30 e0       	ldi	r19, 0x00	; 0
    14c0:	30 93 b9 02 	sts	0x02B9, r19	;  0x8002b9
    14c4:	20 93 b8 02 	sts	0x02B8, r18	;  0x8002b8
    14c8:	28 ec       	ldi	r18, 0xC8	; 200
    14ca:	30 e0       	ldi	r19, 0x00	; 0
    14cc:	30 93 bb 02 	sts	0x02BB, r19	;  0x8002bb
    14d0:	20 93 ba 02 	sts	0x02BA, r18	;  0x8002ba
    14d4:	29 ec       	ldi	r18, 0xC9	; 201
    14d6:	30 e0       	ldi	r19, 0x00	; 0
    14d8:	30 93 bd 02 	sts	0x02BD, r19	;  0x8002bd
    14dc:	20 93 bc 02 	sts	0x02BC, r18	;  0x8002bc
    14e0:	2a ec       	ldi	r18, 0xCA	; 202
    14e2:	30 e0       	ldi	r19, 0x00	; 0
    14e4:	30 93 bf 02 	sts	0x02BF, r19	;  0x8002bf
    14e8:	20 93 be 02 	sts	0x02BE, r18	;  0x8002be
    14ec:	2e ec       	ldi	r18, 0xCE	; 206
    14ee:	30 e0       	ldi	r19, 0x00	; 0
    14f0:	30 93 c1 02 	sts	0x02C1, r19	;  0x8002c1
    14f4:	20 93 c0 02 	sts	0x02C0, r18	;  0x8002c0
    14f8:	10 92 c3 02 	sts	0x02C3, r1	;  0x8002c3
    14fc:	10 92 c4 02 	sts	0x02C4, r1	;  0x8002c4
    1500:	10 92 c5 02 	sts	0x02C5, r1	;  0x8002c5
    1504:	10 92 c6 02 	sts	0x02C6, r1	;  0x8002c6
    1508:	10 92 4a 03 	sts	0x034A, r1	;  0x80034a
    150c:	10 92 49 03 	sts	0x0349, r1	;  0x800349
    1510:	40 93 4b 03 	sts	0x034B, r20	;  0x80034b
    1514:	50 93 4c 03 	sts	0x034C, r21	;  0x80034c
    1518:	60 93 4d 03 	sts	0x034D, r22	;  0x80034d
    151c:	70 93 4e 03 	sts	0x034E, r23	;  0x80034e
    1520:	90 93 48 03 	sts	0x0348, r25	;  0x800348
    1524:	80 93 47 03 	sts	0x0347, r24	;  0x800347
    1528:	85 ec       	ldi	r24, 0xC5	; 197
    152a:	90 e0       	ldi	r25, 0x00	; 0
    152c:	90 93 54 03 	sts	0x0354, r25	;  0x800354
    1530:	80 93 53 03 	sts	0x0353, r24	;  0x800353
    1534:	84 ec       	ldi	r24, 0xC4	; 196
    1536:	90 e0       	ldi	r25, 0x00	; 0
    1538:	90 93 56 03 	sts	0x0356, r25	;  0x800356
    153c:	80 93 55 03 	sts	0x0355, r24	;  0x800355
    1540:	80 ec       	ldi	r24, 0xC0	; 192
    1542:	90 e0       	ldi	r25, 0x00	; 0
    1544:	90 93 58 03 	sts	0x0358, r25	;  0x800358
    1548:	80 93 57 03 	sts	0x0357, r24	;  0x800357
    154c:	81 ec       	ldi	r24, 0xC1	; 193
    154e:	90 e0       	ldi	r25, 0x00	; 0
    1550:	90 93 5a 03 	sts	0x035A, r25	;  0x80035a
    1554:	80 93 59 03 	sts	0x0359, r24	;  0x800359
    1558:	82 ec       	ldi	r24, 0xC2	; 194
    155a:	90 e0       	ldi	r25, 0x00	; 0
    155c:	90 93 5c 03 	sts	0x035C, r25	;  0x80035c
    1560:	80 93 5b 03 	sts	0x035B, r24	;  0x80035b
    1564:	86 ec       	ldi	r24, 0xC6	; 198
    1566:	90 e0       	ldi	r25, 0x00	; 0
    1568:	90 93 5e 03 	sts	0x035E, r25	;  0x80035e
    156c:	80 93 5d 03 	sts	0x035D, r24	;  0x80035d
    1570:	10 92 60 03 	sts	0x0360, r1	;  0x800360
    1574:	10 92 61 03 	sts	0x0361, r1	;  0x800361
    1578:	10 92 62 03 	sts	0x0362, r1	;  0x800362
    157c:	10 92 63 03 	sts	0x0363, r1	;  0x800363
    1580:	10 92 e8 03 	sts	0x03E8, r1	;  0x8003e8
    1584:	10 92 e7 03 	sts	0x03E7, r1	;  0x8003e7
    1588:	8a e2       	ldi	r24, 0x2A	; 42
    158a:	92 e0       	ldi	r25, 0x02	; 2
    158c:	90 93 e6 03 	sts	0x03E6, r25	;  0x8003e6
    1590:	80 93 e5 03 	sts	0x03E5, r24	;  0x8003e5
    1594:	80 e5       	ldi	r24, 0x50	; 80
    1596:	80 93 f1 03 	sts	0x03F1, r24	;  0x8003f1
    159a:	81 e0       	ldi	r24, 0x01	; 1
    159c:	80 93 f2 03 	sts	0x03F2, r24	;  0x8003f2
    15a0:	84 ee       	ldi	r24, 0xE4	; 228
    15a2:	93 e0       	ldi	r25, 0x03	; 3
    15a4:	90 93 f4 03 	sts	0x03F4, r25	;  0x8003f4
    15a8:	80 93 f3 03 	sts	0x03F3, r24	;  0x8003f3
    15ac:	8a e0       	ldi	r24, 0x0A	; 10
    15ae:	90 e0       	ldi	r25, 0x00	; 0
    15b0:	90 93 f6 03 	sts	0x03F6, r25	;  0x8003f6
    15b4:	80 93 f5 03 	sts	0x03F5, r24	;  0x8003f5
    15b8:	89 e0       	ldi	r24, 0x09	; 9
    15ba:	90 e0       	ldi	r25, 0x00	; 0
    15bc:	90 93 f8 03 	sts	0x03F8, r25	;  0x8003f8
    15c0:	80 93 f7 03 	sts	0x03F7, r24	;  0x8003f7
    15c4:	22 e0       	ldi	r18, 0x02	; 2
    15c6:	30 e0       	ldi	r19, 0x00	; 0
    15c8:	30 93 fa 03 	sts	0x03FA, r19	;  0x8003fa
    15cc:	20 93 f9 03 	sts	0x03F9, r18	;  0x8003f9
    15d0:	10 92 fb 03 	sts	0x03FB, r1	;  0x8003fb
    15d4:	10 92 fc 03 	sts	0x03FC, r1	;  0x8003fc
    15d8:	10 92 fd 03 	sts	0x03FD, r1	;  0x8003fd
    15dc:	10 92 fe 03 	sts	0x03FE, r1	;  0x8003fe
    15e0:	10 92 00 04 	sts	0x0400, r1	;  0x800400
    15e4:	10 92 ff 03 	sts	0x03FF, r1	;  0x8003ff
    15e8:	10 92 02 04 	sts	0x0402, r1	;  0x800402
    15ec:	10 92 01 04 	sts	0x0401, r1	;  0x800401
    15f0:	10 92 04 04 	sts	0x0404, r1	;  0x800404
    15f4:	10 92 03 04 	sts	0x0403, r1	;  0x800403
    15f8:	10 92 06 04 	sts	0x0406, r1	;  0x800406
    15fc:	10 92 05 04 	sts	0x0405, r1	;  0x800405
    1600:	10 92 e9 03 	sts	0x03E9, r1	;  0x8003e9
    1604:	10 92 ea 03 	sts	0x03EA, r1	;  0x8003ea
    1608:	10 92 eb 03 	sts	0x03EB, r1	;  0x8003eb
    160c:	10 92 ec 03 	sts	0x03EC, r1	;  0x8003ec
    1610:	46 e3       	ldi	r20, 0x36	; 54
    1612:	50 e0       	ldi	r21, 0x00	; 0
    1614:	50 93 12 04 	sts	0x0412, r21	;  0x800412
    1618:	40 93 11 04 	sts	0x0411, r20	;  0x800411
    161c:	30 93 14 04 	sts	0x0414, r19	;  0x800414
    1620:	20 93 13 04 	sts	0x0413, r18	;  0x800413
    1624:	90 93 10 04 	sts	0x0410, r25	;  0x800410
    1628:	80 93 0f 04 	sts	0x040F, r24	;  0x80040f
    162c:	80 e4       	ldi	r24, 0x40	; 64
    162e:	9e e0       	ldi	r25, 0x0E	; 14
    1630:	af ec       	ldi	r26, 0xCF	; 207
    1632:	b9 e1       	ldi	r27, 0x19	; 25
    1634:	80 93 0b 04 	sts	0x040B, r24	;  0x80040b
    1638:	90 93 0c 04 	sts	0x040C, r25	;  0x80040c
    163c:	a0 93 0d 04 	sts	0x040D, r26	;  0x80040d
    1640:	b0 93 0e 04 	sts	0x040E, r27	;  0x80040e
    1644:	87 e0       	ldi	r24, 0x07	; 7
    1646:	90 e0       	ldi	r25, 0x00	; 0
    1648:	90 93 08 04 	sts	0x0408, r25	;  0x800408
    164c:	80 93 07 04 	sts	0x0407, r24	;  0x800407
    1650:	88 e0       	ldi	r24, 0x08	; 8
    1652:	90 e0       	ldi	r25, 0x00	; 0
    1654:	90 93 0a 04 	sts	0x040A, r25	;  0x80040a
    1658:	80 93 09 04 	sts	0x0409, r24	;  0x800409
    165c:	61 e0       	ldi	r22, 0x01	; 1
    165e:	87 e0       	ldi	r24, 0x07	; 7
    1660:	0e 94 51 02 	call	0x4a2	;  0x4a2
    1664:	60 e0       	ldi	r22, 0x00	; 0
    1666:	88 e0       	ldi	r24, 0x08	; 8
    1668:	0e 94 51 02 	call	0x4a2	;  0x4a2
    166c:	80 91 a5 04 	lds	r24, 0x04A5	;  0x8004a5
    1670:	80 33       	cpi	r24, 0x30	; 48
    1672:	08 f0       	brcs	.+2      	;  0x1676
    1674:	da c0       	rjmp	.+436    	;  0x182a
    1676:	91 e0       	ldi	r25, 0x01	; 1
    1678:	98 0f       	add	r25, r24
    167a:	90 93 a5 04 	sts	0x04A5, r25	;  0x8004a5
    167e:	80 93 a6 04 	sts	0x04A6, r24	;  0x8004a6
    1682:	90 e0       	ldi	r25, 0x00	; 0
    1684:	fc 01       	movw	r30, r24
    1686:	ee 0f       	add	r30, r30
    1688:	ff 1f       	adc	r31, r31
    168a:	e8 0f       	add	r30, r24
    168c:	f9 1f       	adc	r31, r25
    168e:	eb 5e       	subi	r30, 0xEB	; 235
    1690:	fb 4f       	sbci	r31, 0xFB	; 251
    1692:	88 eb       	ldi	r24, 0xB8	; 184
    1694:	9b e0       	ldi	r25, 0x0B	; 11
    1696:	92 83       	std	Z+2, r25	; 0x02
    1698:	81 83       	std	Z+1, r24	; 0x01
    169a:	10 92 a9 04 	sts	0x04A9, r1	;  0x8004a9
    169e:	10 92 aa 04 	sts	0x04AA, r1	;  0x8004aa
    16a2:	10 92 ac 04 	sts	0x04AC, r1	;  0x8004ac
    16a6:	10 92 ab 04 	sts	0x04AB, r1	;  0x8004ab
    16aa:	10 92 ad 04 	sts	0x04AD, r1	;  0x8004ad
    16ae:	10 92 ae 04 	sts	0x04AE, r1	;  0x8004ae
    16b2:	10 92 af 04 	sts	0x04AF, r1	;  0x8004af
    16b6:	10 92 b0 04 	sts	0x04B0, r1	;  0x8004b0
    16ba:	10 92 b1 04 	sts	0x04B1, r1	;  0x8004b1
    16be:	10 92 b3 04 	sts	0x04B3, r1	;  0x8004b3
    16c2:	10 92 b2 04 	sts	0x04B2, r1	;  0x8004b2
    16c6:	10 92 b4 04 	sts	0x04B4, r1	;  0x8004b4
    16ca:	10 92 b5 04 	sts	0x04B5, r1	;  0x8004b5
    16ce:	10 92 b6 04 	sts	0x04B6, r1	;  0x8004b6
    16d2:	10 92 b7 04 	sts	0x04B7, r1	;  0x8004b7
    16d6:	10 92 b8 04 	sts	0x04B8, r1	;  0x8004b8
    16da:	10 92 ba 04 	sts	0x04BA, r1	;  0x8004ba
    16de:	10 92 b9 04 	sts	0x04B9, r1	;  0x8004b9
    16e2:	10 92 bb 04 	sts	0x04BB, r1	;  0x8004bb
    16e6:	10 92 bc 04 	sts	0x04BC, r1	;  0x8004bc
    16ea:	10 92 bd 04 	sts	0x04BD, r1	;  0x8004bd
    16ee:	10 92 be 04 	sts	0x04BE, r1	;  0x8004be
    16f2:	10 92 bf 04 	sts	0x04BF, r1	;  0x8004bf
    16f6:	10 92 c1 04 	sts	0x04C1, r1	;  0x8004c1
    16fa:	10 92 c0 04 	sts	0x04C0, r1	;  0x8004c0
    16fe:	10 92 c2 04 	sts	0x04C2, r1	;  0x8004c2
    1702:	10 92 c3 04 	sts	0x04C3, r1	;  0x8004c3
    1706:	10 92 c4 04 	sts	0x04C4, r1	;  0x8004c4
    170a:	10 92 c5 04 	sts	0x04C5, r1	;  0x8004c5
    170e:	10 92 c6 04 	sts	0x04C6, r1	;  0x8004c6
    1712:	10 92 cb 04 	sts	0x04CB, r1	;  0x8004cb
    1716:	10 92 cc 04 	sts	0x04CC, r1	;  0x8004cc
    171a:	10 92 cd 04 	sts	0x04CD, r1	;  0x8004cd
    171e:	10 92 ce 04 	sts	0x04CE, r1	;  0x8004ce
    1722:	10 92 cf 04 	sts	0x04CF, r1	;  0x8004cf
    1726:	10 92 d0 04 	sts	0x04D0, r1	;  0x8004d0
    172a:	10 92 d9 04 	sts	0x04D9, r1	;  0x8004d9
    172e:	10 92 da 04 	sts	0x04DA, r1	;  0x8004da
    1732:	10 92 db 04 	sts	0x04DB, r1	;  0x8004db
    1736:	10 92 dc 04 	sts	0x04DC, r1	;  0x8004dc
    173a:	10 92 dd 04 	sts	0x04DD, r1	;  0x8004dd
    173e:	10 92 de 04 	sts	0x04DE, r1	;  0x8004de
    1742:	10 92 e7 04 	sts	0x04E7, r1	;  0x8004e7
    1746:	10 92 e8 04 	sts	0x04E8, r1	;  0x8004e8
    174a:	10 92 ed 04 	sts	0x04ED, r1	;  0x8004ed
    174e:	10 92 ee 04 	sts	0x04EE, r1	;  0x8004ee
    1752:	10 92 ef 04 	sts	0x04EF, r1	;  0x8004ef
    1756:	10 92 f0 04 	sts	0x04F0, r1	;  0x8004f0
    175a:	10 92 f5 04 	sts	0x04F5, r1	;  0x8004f5
    175e:	10 92 f6 04 	sts	0x04F6, r1	;  0x8004f6
    1762:	10 92 fb 04 	sts	0x04FB, r1	;  0x8004fb
    1766:	10 92 fc 04 	sts	0x04FC, r1	;  0x8004fc
    176a:	10 92 fd 04 	sts	0x04FD, r1	;  0x8004fd
    176e:	10 92 fe 04 	sts	0x04FE, r1	;  0x8004fe
    1772:	10 92 03 05 	sts	0x0503, r1	;  0x800503
    1776:	10 92 04 05 	sts	0x0504, r1	;  0x800504
    177a:	10 92 09 05 	sts	0x0509, r1	;  0x800509
    177e:	10 92 0a 05 	sts	0x050A, r1	;  0x80050a
    1782:	10 92 0b 05 	sts	0x050B, r1	;  0x80050b
    1786:	10 92 0c 05 	sts	0x050C, r1	;  0x80050c
    178a:	10 92 11 05 	sts	0x0511, r1	;  0x800511
    178e:	10 92 12 05 	sts	0x0512, r1	;  0x800512
    1792:	10 92 17 05 	sts	0x0517, r1	;  0x800517
    1796:	10 92 18 05 	sts	0x0518, r1	;  0x800518
    179a:	10 92 19 05 	sts	0x0519, r1	;  0x800519
    179e:	10 92 1a 05 	sts	0x051A, r1	;  0x80051a
    17a2:	10 92 1f 05 	sts	0x051F, r1	;  0x80051f
    17a6:	10 92 20 05 	sts	0x0520, r1	;  0x800520
    17aa:	10 92 25 05 	sts	0x0525, r1	;  0x800525
    17ae:	10 92 26 05 	sts	0x0526, r1	;  0x800526
    17b2:	10 92 27 05 	sts	0x0527, r1	;  0x800527
    17b6:	10 92 28 05 	sts	0x0528, r1	;  0x800528
    17ba:	10 92 2d 05 	sts	0x052D, r1	;  0x80052d
    17be:	10 92 2e 05 	sts	0x052E, r1	;  0x80052e
    17c2:	82 e0       	ldi	r24, 0x02	; 2
    17c4:	80 93 3e 05 	sts	0x053E, r24	;  0x80053e
    17c8:	10 92 3f 05 	sts	0x053F, r1	;  0x80053f
    17cc:	10 92 40 05 	sts	0x0540, r1	;  0x800540
    17d0:	10 92 41 05 	sts	0x0541, r1	;  0x800541
    17d4:	10 92 43 05 	sts	0x0543, r1	;  0x800543
    17d8:	10 92 42 05 	sts	0x0542, r1	;  0x800542
    17dc:	10 92 45 05 	sts	0x0545, r1	;  0x800545
    17e0:	10 92 44 05 	sts	0x0544, r1	;  0x800544
    17e4:	10 92 46 05 	sts	0x0546, r1	;  0x800546
    17e8:	10 92 47 05 	sts	0x0547, r1	;  0x800547
    17ec:	10 92 48 05 	sts	0x0548, r1	;  0x800548
    17f0:	10 92 49 05 	sts	0x0549, r1	;  0x800549
    17f4:	10 92 4a 05 	sts	0x054A, r1	;  0x80054a
    17f8:	10 92 4b 05 	sts	0x054B, r1	;  0x80054b
    17fc:	10 92 4c 05 	sts	0x054C, r1	;  0x80054c
    1800:	10 92 4d 05 	sts	0x054D, r1	;  0x80054d
    1804:	10 92 4e 05 	sts	0x054E, r1	;  0x80054e
    1808:	10 92 4f 05 	sts	0x054F, r1	;  0x80054f
    180c:	10 92 50 05 	sts	0x0550, r1	;  0x800550
    1810:	10 92 51 05 	sts	0x0551, r1	;  0x800551
    1814:	10 92 52 05 	sts	0x0552, r1	;  0x800552
    1818:	10 92 53 05 	sts	0x0553, r1	;  0x800553
    181c:	10 92 54 05 	sts	0x0554, r1	;  0x800554
    1820:	10 92 55 05 	sts	0x0555, r1	;  0x800555
    1824:	10 92 2f 05 	sts	0x052F, r1	;  0x80052f
    1828:	08 95       	ret
    182a:	8f ef       	ldi	r24, 0xFF	; 255
    182c:	80 93 a6 04 	sts	0x04A6, r24	;  0x8004a6
    1830:	34 cf       	rjmp	.-408    	;  0x169a
    1832:	cf 93       	push	r28
    1834:	df 93       	push	r29
    1836:	cd b7       	in	r28, 0x3d	; 61
    1838:	de b7       	in	r29, 0x3e	; 62
    183a:	2e 97       	sbiw	r28, 0x0e	; 14
    183c:	0f b6       	in	r0, 0x3f	; 63
    183e:	f8 94       	cli
    1840:	de bf       	out	0x3e, r29	; 62
    1842:	0f be       	out	0x3f, r0	; 63
    1844:	cd bf       	out	0x3d, r28	; 61
    1846:	78 94       	sei
    1848:	84 b5       	in	r24, 0x24	; 36
    184a:	82 60       	ori	r24, 0x02	; 2
    184c:	84 bd       	out	0x24, r24	; 36
    184e:	84 b5       	in	r24, 0x24	; 36
    1850:	81 60       	ori	r24, 0x01	; 1
    1852:	84 bd       	out	0x24, r24	; 36
    1854:	85 b5       	in	r24, 0x25	; 37
    1856:	82 60       	ori	r24, 0x02	; 2
    1858:	85 bd       	out	0x25, r24	; 37
    185a:	85 b5       	in	r24, 0x25	; 37
    185c:	81 60       	ori	r24, 0x01	; 1
    185e:	85 bd       	out	0x25, r24	; 37
    1860:	80 91 6e 00 	lds	r24, 0x006E	;  0x80006e
    1864:	81 60       	ori	r24, 0x01	; 1
    1866:	80 93 6e 00 	sts	0x006E, r24	;  0x80006e
    186a:	10 92 81 00 	sts	0x0081, r1	;  0x800081
    186e:	80 91 81 00 	lds	r24, 0x0081	;  0x800081
    1872:	82 60       	ori	r24, 0x02	; 2
    1874:	80 93 81 00 	sts	0x0081, r24	;  0x800081
    1878:	80 91 81 00 	lds	r24, 0x0081	;  0x800081
    187c:	81 60       	ori	r24, 0x01	; 1
    187e:	80 93 81 00 	sts	0x0081, r24	;  0x800081
    1882:	80 91 80 00 	lds	r24, 0x0080	;  0x800080
    1886:	81 60       	ori	r24, 0x01	; 1
    1888:	80 93 80 00 	sts	0x0080, r24	;  0x800080
    188c:	80 91 b1 00 	lds	r24, 0x00B1	;  0x8000b1
    1890:	84 60       	ori	r24, 0x04	; 4
    1892:	80 93 b1 00 	sts	0x00B1, r24	;  0x8000b1
    1896:	80 91 b0 00 	lds	r24, 0x00B0	;  0x8000b0
    189a:	81 60       	ori	r24, 0x01	; 1
    189c:	80 93 b0 00 	sts	0x00B0, r24	;  0x8000b0
    18a0:	80 91 91 00 	lds	r24, 0x0091	;  0x800091
    18a4:	82 60       	ori	r24, 0x02	; 2
    18a6:	80 93 91 00 	sts	0x0091, r24	;  0x800091
    18aa:	80 91 91 00 	lds	r24, 0x0091	;  0x800091
    18ae:	81 60       	ori	r24, 0x01	; 1
    18b0:	80 93 91 00 	sts	0x0091, r24	;  0x800091
    18b4:	80 91 90 00 	lds	r24, 0x0090	;  0x800090
    18b8:	81 60       	ori	r24, 0x01	; 1
    18ba:	80 93 90 00 	sts	0x0090, r24	;  0x800090
    18be:	80 91 a1 00 	lds	r24, 0x00A1	;  0x8000a1
    18c2:	82 60       	ori	r24, 0x02	; 2
    18c4:	80 93 a1 00 	sts	0x00A1, r24	;  0x8000a1
    18c8:	80 91 a1 00 	lds	r24, 0x00A1	;  0x8000a1
    18cc:	81 60       	ori	r24, 0x01	; 1
    18ce:	80 93 a1 00 	sts	0x00A1, r24	;  0x8000a1
    18d2:	80 91 a0 00 	lds	r24, 0x00A0	;  0x8000a0
    18d6:	81 60       	ori	r24, 0x01	; 1
    18d8:	80 93 a0 00 	sts	0x00A0, r24	;  0x8000a0
    18dc:	80 91 21 01 	lds	r24, 0x0121	;  0x800121
    18e0:	82 60       	ori	r24, 0x02	; 2
    18e2:	80 93 21 01 	sts	0x0121, r24	;  0x800121
    18e6:	80 91 21 01 	lds	r24, 0x0121	;  0x800121
    18ea:	81 60       	ori	r24, 0x01	; 1
    18ec:	80 93 21 01 	sts	0x0121, r24	;  0x800121
    18f0:	80 91 20 01 	lds	r24, 0x0120	;  0x800120
    18f4:	81 60       	ori	r24, 0x01	; 1
    18f6:	80 93 20 01 	sts	0x0120, r24	;  0x800120
    18fa:	80 91 7a 00 	lds	r24, 0x007A	;  0x80007a
    18fe:	84 60       	ori	r24, 0x04	; 4
    1900:	80 93 7a 00 	sts	0x007A, r24	;  0x80007a
    1904:	80 91 7a 00 	lds	r24, 0x007A	;  0x80007a
    1908:	82 60       	ori	r24, 0x02	; 2
    190a:	80 93 7a 00 	sts	0x007A, r24	;  0x80007a
    190e:	80 91 7a 00 	lds	r24, 0x007A	;  0x80007a
    1912:	81 60       	ori	r24, 0x01	; 1
    1914:	80 93 7a 00 	sts	0x007A, r24	;  0x80007a
    1918:	80 91 7a 00 	lds	r24, 0x007A	;  0x80007a
    191c:	80 68       	ori	r24, 0x80	; 128
    191e:	80 93 7a 00 	sts	0x007A, r24	;  0x80007a
    1922:	10 92 c1 00 	sts	0x00C1, r1	;  0x8000c1
    1926:	87 e4       	ldi	r24, 0x47	; 71
    1928:	93 e0       	ldi	r25, 0x03	; 3
    192a:	0e 94 9e 01 	call	0x33c	;  0x33c
    192e:	60 e0       	ldi	r22, 0x00	; 0
    1930:	80 91 13 04 	lds	r24, 0x0413	;  0x800413
    1934:	0e 94 51 02 	call	0x4a2	;  0x4a2
    1938:	8a ea       	ldi	r24, 0xAA	; 170
    193a:	92 e0       	ldi	r25, 0x02	; 2
    193c:	0e 94 9e 01 	call	0x33c	;  0x33c
    1940:	20 91 0f 04 	lds	r18, 0x040F	;  0x80040f
    1944:	29 83       	std	Y+1, r18	; 0x01
    1946:	80 91 a6 04 	lds	r24, 0x04A6	;  0x8004a6
    194a:	80 33       	cpi	r24, 0x30	; 48
    194c:	08 f0       	brcs	.+2      	;  0x1950
    194e:	54 c0       	rjmp	.+168    	;  0x19f8
    1950:	61 e0       	ldi	r22, 0x01	; 1
    1952:	82 2f       	mov	r24, r18
    1954:	0e 94 51 02 	call	0x4a2	;  0x4a2
    1958:	80 91 a6 04 	lds	r24, 0x04A6	;  0x8004a6
    195c:	28 2f       	mov	r18, r24
    195e:	30 e0       	ldi	r19, 0x00	; 0
    1960:	f9 01       	movw	r30, r18
    1962:	ee 0f       	add	r30, r30
    1964:	ff 1f       	adc	r31, r31
    1966:	e2 0f       	add	r30, r18
    1968:	f3 1f       	adc	r31, r19
    196a:	eb 5e       	subi	r30, 0xEB	; 235
    196c:	fb 4f       	sbci	r31, 0xFB	; 251
    196e:	39 81       	ldd	r19, Y+1	; 0x01
    1970:	3f 73       	andi	r19, 0x3F	; 63
    1972:	90 81       	ld	r25, Z
    1974:	90 7c       	andi	r25, 0xC0	; 192
    1976:	93 2b       	or	r25, r19
    1978:	90 83       	st	Z, r25
    197a:	10 92 a7 04 	sts	0x04A7, r1	;  0x8004a7
    197e:	10 92 a8 04 	sts	0x04A8, r1	;  0x8004a8
    1982:	2c e0       	ldi	r18, 0x0C	; 12
    1984:	62 2f       	mov	r22, r18
    1986:	0e 94 0c 15 	call	0x2a18	;  0x2a18
    198a:	82 9f       	mul	r24, r18
    198c:	b0 01       	movw	r22, r0
    198e:	11 24       	eor	r1, r1
    1990:	30 e0       	ldi	r19, 0x00	; 0
    1992:	20 e0       	ldi	r18, 0x00	; 0
    1994:	ab 01       	movw	r20, r22
    1996:	42 0f       	add	r20, r18
    1998:	53 1f       	adc	r21, r19
    199a:	fa 01       	movw	r30, r20
    199c:	ee 0f       	add	r30, r30
    199e:	ff 1f       	adc	r31, r31
    19a0:	e4 0f       	add	r30, r20
    19a2:	f5 1f       	adc	r31, r21
    19a4:	eb 5e       	subi	r30, 0xEB	; 235
    19a6:	fb 4f       	sbci	r31, 0xFB	; 251
    19a8:	90 81       	ld	r25, Z
    19aa:	96 fd       	sbrc	r25, 6
    19ac:	17 c0       	rjmp	.+46     	;  0x19dc
    19ae:	2f 5f       	subi	r18, 0xFF	; 255
    19b0:	3f 4f       	sbci	r19, 0xFF	; 255
    19b2:	2c 30       	cpi	r18, 0x0C	; 12
    19b4:	31 05       	cpc	r19, r1
    19b6:	71 f7       	brne	.-36     	;  0x1994
    19b8:	81 30       	cpi	r24, 0x01	; 1
    19ba:	09 f0       	breq	.+2      	;  0x19be
    19bc:	24 c2       	rjmp	.+1096   	;  0x1e06
    19be:	10 92 80 00 	sts	0x0080, r1	;  0x800080
    19c2:	82 e0       	ldi	r24, 0x02	; 2
    19c4:	80 93 81 00 	sts	0x0081, r24	;  0x800081
    19c8:	10 92 85 00 	sts	0x0085, r1	;  0x800085
    19cc:	10 92 84 00 	sts	0x0084, r1	;  0x800084
    19d0:	b1 9a       	sbi	0x16, 1	; 22
    19d2:	80 91 6f 00 	lds	r24, 0x006F	;  0x80006f
    19d6:	82 60       	ori	r24, 0x02	; 2
    19d8:	80 93 6f 00 	sts	0x006F, r24	;  0x80006f
    19dc:	e0 91 a6 04 	lds	r30, 0x04A6	;  0x8004a6
    19e0:	8e 2f       	mov	r24, r30
    19e2:	90 e0       	ldi	r25, 0x00	; 0
    19e4:	fc 01       	movw	r30, r24
    19e6:	ee 0f       	add	r30, r30
    19e8:	ff 1f       	adc	r31, r31
    19ea:	e8 0f       	add	r30, r24
    19ec:	f9 1f       	adc	r31, r25
    19ee:	eb 5e       	subi	r30, 0xEB	; 235
    19f0:	fb 4f       	sbci	r31, 0xFB	; 251
    19f2:	80 81       	ld	r24, Z
    19f4:	80 64       	ori	r24, 0x40	; 64
    19f6:	80 83       	st	Z, r24
    19f8:	c0 90 0b 04 	lds	r12, 0x040B	;  0x80040b
    19fc:	d0 90 0c 04 	lds	r13, 0x040C	;  0x80040c
    1a00:	e0 90 0d 04 	lds	r14, 0x040D	;  0x80040d
    1a04:	f0 90 0e 04 	lds	r15, 0x040E	;  0x80040e
    1a08:	61 e0       	ldi	r22, 0x01	; 1
    1a0a:	80 91 f5 03 	lds	r24, 0x03F5	;  0x8003f5
    1a0e:	0e 94 51 02 	call	0x4a2	;  0x4a2
    1a12:	61 e0       	ldi	r22, 0x01	; 1
    1a14:	80 91 f5 03 	lds	r24, 0x03F5	;  0x8003f5
    1a18:	0e 94 c5 01 	call	0x38a	;  0x38a
    1a1c:	80 91 f7 03 	lds	r24, 0x03F7	;  0x8003f7
    1a20:	90 91 f8 03 	lds	r25, 0x03F8	;  0x8003f8
    1a24:	8f 3f       	cpi	r24, 0xFF	; 255
    1a26:	98 07       	cpc	r25, r24
    1a28:	c9 f0       	breq	.+50     	;  0x1a5c
    1a2a:	61 e0       	ldi	r22, 0x01	; 1
    1a2c:	0e 94 51 02 	call	0x4a2	;  0x4a2
    1a30:	60 e0       	ldi	r22, 0x00	; 0
    1a32:	80 91 f7 03 	lds	r24, 0x03F7	;  0x8003f7
    1a36:	0e 94 c5 01 	call	0x38a	;  0x38a
    1a3a:	6a e0       	ldi	r22, 0x0A	; 10
    1a3c:	70 e0       	ldi	r23, 0x00	; 0
    1a3e:	80 e0       	ldi	r24, 0x00	; 0
    1a40:	90 e0       	ldi	r25, 0x00	; 0
    1a42:	0e 94 a7 02 	call	0x54e	;  0x54e
    1a46:	61 e0       	ldi	r22, 0x01	; 1
    1a48:	80 91 f7 03 	lds	r24, 0x03F7	;  0x8003f7
    1a4c:	0e 94 c5 01 	call	0x38a	;  0x38a
    1a50:	6a e0       	ldi	r22, 0x0A	; 10
    1a52:	70 e0       	ldi	r23, 0x00	; 0
    1a54:	80 e0       	ldi	r24, 0x00	; 0
    1a56:	90 e0       	ldi	r25, 0x00	; 0
    1a58:	0e 94 a7 02 	call	0x54e	;  0x54e
    1a5c:	3f b7       	in	r19, 0x3f	; 63
    1a5e:	39 83       	std	Y+1, r19	; 0x01
    1a60:	f8 94       	cli
    1a62:	80 91 a0 02 	lds	r24, 0x02A0	;  0x8002a0
    1a66:	81 11       	cpse	r24, r1
    1a68:	27 c0       	rjmp	.+78     	;  0x1ab8
    1a6a:	e7 e3       	ldi	r30, 0x37	; 55
    1a6c:	f2 e0       	ldi	r31, 0x02	; 2
    1a6e:	84 91       	lpm	r24, Z
    1a70:	ed e7       	ldi	r30, 0x7D	; 125
    1a72:	f2 e0       	ldi	r31, 0x02	; 2
    1a74:	94 91       	lpm	r25, Z
    1a76:	e8 2f       	mov	r30, r24
    1a78:	f0 e0       	ldi	r31, 0x00	; 0
    1a7a:	ee 0f       	add	r30, r30
    1a7c:	ff 1f       	adc	r31, r31
    1a7e:	e2 53       	subi	r30, 0x32	; 50
    1a80:	fe 4f       	sbci	r31, 0xFE	; 254
    1a82:	a5 91       	lpm	r26, Z+
    1a84:	b4 91       	lpm	r27, Z
    1a86:	ec 91       	ld	r30, X
    1a88:	e9 23       	and	r30, r25
    1a8a:	21 f4       	brne	.+8      	;  0x1a94
    1a8c:	61 e0       	ldi	r22, 0x01	; 1
    1a8e:	85 e3       	ldi	r24, 0x35	; 53
    1a90:	0e 94 c5 01 	call	0x38a	;  0x38a
    1a94:	61 e0       	ldi	r22, 0x01	; 1
    1a96:	85 e3       	ldi	r24, 0x35	; 53
    1a98:	0e 94 51 02 	call	0x4a2	;  0x4a2
    1a9c:	8c b5       	in	r24, 0x2c	; 44
    1a9e:	80 61       	ori	r24, 0x10	; 16
    1aa0:	8c bd       	out	0x2c, r24	; 44
    1aa2:	8c b5       	in	r24, 0x2c	; 44
    1aa4:	80 64       	ori	r24, 0x40	; 64
    1aa6:	8c bd       	out	0x2c, r24	; 44
    1aa8:	61 e0       	ldi	r22, 0x01	; 1
    1aaa:	84 e3       	ldi	r24, 0x34	; 52
    1aac:	0e 94 51 02 	call	0x4a2	;  0x4a2
    1ab0:	61 e0       	ldi	r22, 0x01	; 1
    1ab2:	83 e3       	ldi	r24, 0x33	; 51
    1ab4:	0e 94 51 02 	call	0x4a2	;  0x4a2
    1ab8:	80 91 a0 02 	lds	r24, 0x02A0	;  0x8002a0
    1abc:	8f 5f       	subi	r24, 0xFF	; 255
    1abe:	80 93 a0 02 	sts	0x02A0, r24	;  0x8002a0
    1ac2:	89 81       	ldd	r24, Y+1	; 0x01
    1ac4:	8f bf       	out	0x3f, r24	; 63
    1ac6:	62 e4       	ldi	r22, 0x42	; 66
    1ac8:	85 ee       	ldi	r24, 0xE5	; 229
    1aca:	93 e0       	ldi	r25, 0x03	; 3
    1acc:	0e 94 39 04 	call	0x872	;  0x872
    1ad0:	82 31       	cpi	r24, 0x12	; 18
    1ad2:	09 f0       	breq	.+2      	;  0x1ad6
    1ad4:	84 c0       	rjmp	.+264    	;  0x1bde
    1ad6:	40 e8       	ldi	r20, 0x80	; 128
    1ad8:	61 e8       	ldi	r22, 0x81	; 129
    1ada:	85 ee       	ldi	r24, 0xE5	; 229
    1adc:	93 e0       	ldi	r25, 0x03	; 3
    1ade:	0e 94 14 04 	call	0x828	;  0x828
    1ae2:	c0 92 fb 03 	sts	0x03FB, r12	;  0x8003fb
    1ae6:	d0 92 fc 03 	sts	0x03FC, r13	;  0x8003fc
    1aea:	e0 92 fd 03 	sts	0x03FD, r14	;  0x8003fd
    1aee:	f0 92 fe 03 	sts	0x03FE, r15	;  0x8003fe
    1af2:	46 01       	movw	r8, r12
    1af4:	57 01       	movw	r10, r14
    1af6:	bb 0c       	add	r11, r11
    1af8:	88 08       	sbc	r8, r8
    1afa:	98 2c       	mov	r9, r8
    1afc:	54 01       	movw	r10, r8
    1afe:	96 01       	movw	r18, r12
    1b00:	a7 01       	movw	r20, r14
    1b02:	68 2d       	mov	r22, r8
    1b04:	78 2d       	mov	r23, r8
    1b06:	88 2d       	mov	r24, r8
    1b08:	98 2d       	mov	r25, r8
    1b0a:	03 e1       	ldi	r16, 0x13	; 19
    1b0c:	0e 94 7f 15 	call	0x2afe	;  0x2afe
    1b10:	a1 2c       	mov	r10, r1
    1b12:	e8 e4       	ldi	r30, 0x48	; 72
    1b14:	be 2e       	mov	r11, r30
    1b16:	f8 ee       	ldi	r31, 0xE8	; 232
    1b18:	cf 2e       	mov	r12, r31
    1b1a:	dd 24       	eor	r13, r13
    1b1c:	d3 94       	inc	r13
    1b1e:	e1 2c       	mov	r14, r1
    1b20:	f1 2c       	mov	r15, r1
    1b22:	00 e0       	ldi	r16, 0x00	; 0
    1b24:	10 e0       	ldi	r17, 0x00	; 0
    1b26:	0e 94 22 15 	call	0x2a44	;  0x2a44
    1b2a:	29 83       	std	Y+1, r18	; 0x01
    1b2c:	b3 2e       	mov	r11, r19
    1b2e:	6a 01       	movw	r12, r20
    1b30:	7b 01       	movw	r14, r22
    1b32:	18 2f       	mov	r17, r24
    1b34:	9d 83       	std	Y+5, r25	; 0x05
    1b36:	00 e1       	ldi	r16, 0x10	; 16
    1b38:	0e 94 9a 15 	call	0x2b34	;  0x2b34
    1b3c:	42 2f       	mov	r20, r18
    1b3e:	66 e8       	ldi	r22, 0x86	; 134
    1b40:	85 ee       	ldi	r24, 0xE5	; 229
    1b42:	93 e0       	ldi	r25, 0x03	; 3
    1b44:	0e 94 14 04 	call	0x828	;  0x828
    1b48:	29 81       	ldd	r18, Y+1	; 0x01
    1b4a:	3b 2d       	mov	r19, r11
    1b4c:	a6 01       	movw	r20, r12
    1b4e:	b7 01       	movw	r22, r14
    1b50:	81 2f       	mov	r24, r17
    1b52:	9d 81       	ldd	r25, Y+5	; 0x05
    1b54:	08 e0       	ldi	r16, 0x08	; 8
    1b56:	0e 94 9a 15 	call	0x2b34	;  0x2b34
    1b5a:	42 2f       	mov	r20, r18
    1b5c:	67 e8       	ldi	r22, 0x87	; 135
    1b5e:	85 ee       	ldi	r24, 0xE5	; 229
    1b60:	93 e0       	ldi	r25, 0x03	; 3
    1b62:	0e 94 14 04 	call	0x828	;  0x828
    1b66:	49 81       	ldd	r20, Y+1	; 0x01
    1b68:	68 e8       	ldi	r22, 0x88	; 136
    1b6a:	85 ee       	ldi	r24, 0xE5	; 229
    1b6c:	93 e0       	ldi	r25, 0x03	; 3
    1b6e:	0e 94 14 04 	call	0x828	;  0x828
    1b72:	40 e0       	ldi	r20, 0x00	; 0
    1b74:	6e e8       	ldi	r22, 0x8E	; 142
    1b76:	85 ee       	ldi	r24, 0xE5	; 229
    1b78:	93 e0       	ldi	r25, 0x03	; 3
    1b7a:	0e 94 14 04 	call	0x828	;  0x828
    1b7e:	40 e0       	ldi	r20, 0x00	; 0
    1b80:	6f e8       	ldi	r22, 0x8F	; 143
    1b82:	85 ee       	ldi	r24, 0xE5	; 229
    1b84:	93 e0       	ldi	r25, 0x03	; 3
    1b86:	0e 94 14 04 	call	0x828	;  0x828
    1b8a:	6c e0       	ldi	r22, 0x0C	; 12
    1b8c:	85 ee       	ldi	r24, 0xE5	; 229
    1b8e:	93 e0       	ldi	r25, 0x03	; 3
    1b90:	0e 94 39 04 	call	0x872	;  0x872
    1b94:	48 2f       	mov	r20, r24
    1b96:	43 60       	ori	r20, 0x03	; 3
    1b98:	6c e8       	ldi	r22, 0x8C	; 140
    1b9a:	85 ee       	ldi	r24, 0xE5	; 229
    1b9c:	93 e0       	ldi	r25, 0x03	; 3
    1b9e:	0e 94 14 04 	call	0x828	;  0x828
    1ba2:	44 e0       	ldi	r20, 0x04	; 4
    1ba4:	66 ea       	ldi	r22, 0xA6	; 166
    1ba6:	85 ee       	ldi	r24, 0xE5	; 229
    1ba8:	93 e0       	ldi	r25, 0x03	; 3
    1baa:	0e 94 14 04 	call	0x828	;  0x828
    1bae:	44 e8       	ldi	r20, 0x84	; 132
    1bb0:	6d ec       	ldi	r22, 0xCD	; 205
    1bb2:	85 ee       	ldi	r24, 0xE5	; 229
    1bb4:	93 e0       	ldi	r25, 0x03	; 3
    1bb6:	0e 94 14 04 	call	0x828	;  0x828
    1bba:	4b e2       	ldi	r20, 0x2B	; 43
    1bbc:	6b e8       	ldi	r22, 0x8B	; 139
    1bbe:	85 ee       	ldi	r24, 0xE5	; 229
    1bc0:	93 e0       	ldi	r25, 0x03	; 3
    1bc2:	0e 94 14 04 	call	0x828	;  0x828
    1bc6:	4f e8       	ldi	r20, 0x8F	; 143
    1bc8:	69 e8       	ldi	r22, 0x89	; 137
    1bca:	85 ee       	ldi	r24, 0xE5	; 229
    1bcc:	93 e0       	ldi	r25, 0x03	; 3
    1bce:	0e 94 14 04 	call	0x828	;  0x828
    1bd2:	41 e8       	ldi	r20, 0x81	; 129
    1bd4:	61 e8       	ldi	r22, 0x81	; 129
    1bd6:	85 ee       	ldi	r24, 0xE5	; 229
    1bd8:	93 e0       	ldi	r25, 0x03	; 3
    1bda:	0e 94 14 04 	call	0x828	;  0x828
    1bde:	68 e5       	ldi	r22, 0x58	; 88
    1be0:	26 2e       	mov	r2, r22
    1be2:	62 e0       	ldi	r22, 0x02	; 2
    1be4:	36 2e       	mov	r3, r22
    1be6:	60 e0       	ldi	r22, 0x00	; 0
    1be8:	80 91 07 04 	lds	r24, 0x0407	;  0x800407
    1bec:	0e 94 c5 01 	call	0x38a	;  0x38a
    1bf0:	83 e0       	ldi	r24, 0x03	; 3
    1bf2:	90 e0       	ldi	r25, 0x00	; 0
    1bf4:	01 97       	sbiw	r24, 0x01	; 1
    1bf6:	f1 f7       	brne	.-4      	;  0x1bf4
    1bf8:	61 e0       	ldi	r22, 0x01	; 1
    1bfa:	80 91 07 04 	lds	r24, 0x0407	;  0x800407
    1bfe:	0e 94 c5 01 	call	0x38a	;  0x38a
    1c02:	83 e2       	ldi	r24, 0x23	; 35
    1c04:	90 e0       	ldi	r25, 0x00	; 0
    1c06:	01 97       	sbiw	r24, 0x01	; 1
    1c08:	f1 f7       	brne	.-4      	;  0x1c06
    1c0a:	60 e0       	ldi	r22, 0x00	; 0
    1c0c:	80 91 07 04 	lds	r24, 0x0407	;  0x800407
    1c10:	0e 94 c5 01 	call	0x38a	;  0x38a
    1c14:	80 91 09 04 	lds	r24, 0x0409	;  0x800409
    1c18:	90 91 0a 04 	lds	r25, 0x040A	;  0x80040a
    1c1c:	99 27       	eor	r25, r25
    1c1e:	fc 01       	movw	r30, r24
    1c20:	e8 5b       	subi	r30, 0xB8	; 184
    1c22:	fd 4f       	sbci	r31, 0xFD	; 253
    1c24:	64 91       	lpm	r22, Z
    1c26:	fc 01       	movw	r30, r24
    1c28:	ee 5f       	subi	r30, 0xFE	; 254
    1c2a:	fd 4f       	sbci	r31, 0xFD	; 253
    1c2c:	e4 91       	lpm	r30, Z
    1c2e:	f0 e0       	ldi	r31, 0x00	; 0
    1c30:	ee 0f       	add	r30, r30
    1c32:	ff 1f       	adc	r31, r31
    1c34:	ec 54       	subi	r30, 0x4C	; 76
    1c36:	fe 4f       	sbci	r31, 0xFE	; 254
    1c38:	85 91       	lpm	r24, Z+
    1c3a:	94 91       	lpm	r25, Z
    1c3c:	00 e4       	ldi	r16, 0x40	; 64
    1c3e:	12 e4       	ldi	r17, 0x42	; 66
    1c40:	2f e0       	ldi	r18, 0x0F	; 15
    1c42:	30 e0       	ldi	r19, 0x00	; 0
    1c44:	46 2f       	mov	r20, r22
    1c46:	0e 94 fd 09 	call	0x13fa	;  0x13fa
    1c4a:	61 15       	cp	r22, r1
    1c4c:	71 05       	cpc	r23, r1
    1c4e:	81 05       	cpc	r24, r1
    1c50:	91 05       	cpc	r25, r1
    1c52:	29 f0       	breq	.+10     	;  0x1c5e
    1c54:	6f 5f       	subi	r22, 0xFF	; 255
    1c56:	7f 4f       	sbci	r23, 0xFF	; 255
    1c58:	8f 4f       	sbci	r24, 0xFF	; 255
    1c5a:	9f 4f       	sbci	r25, 0xFF	; 255
    1c5c:	9f 70       	andi	r25, 0x0F	; 15
    1c5e:	0e 94 5a 11 	call	0x22b4	;  0x22b4
    1c62:	26 e9       	ldi	r18, 0x96	; 150
    1c64:	33 e4       	ldi	r19, 0x43	; 67
    1c66:	4b e0       	ldi	r20, 0x0B	; 11
    1c68:	5d e3       	ldi	r21, 0x3D	; 61
    1c6a:	0e 94 b9 11 	call	0x2372	;  0x2372
    1c6e:	20 e0       	ldi	r18, 0x00	; 0
    1c70:	30 e0       	ldi	r19, 0x00	; 0
    1c72:	40 e0       	ldi	r20, 0x00	; 0
    1c74:	5f e3       	ldi	r21, 0x3F	; 63
    1c76:	0e 94 b9 11 	call	0x2372	;  0x2372
    1c7a:	0e 94 30 14 	call	0x2860	;  0x2860
    1c7e:	61 50       	subi	r22, 0x01	; 1
    1c80:	71 09       	sbc	r23, r1
    1c82:	81 09       	sbc	r24, r1
    1c84:	91 09       	sbc	r25, r1
    1c86:	6d 31       	cpi	r22, 0x1D	; 29
    1c88:	71 05       	cpc	r23, r1
    1c8a:	81 05       	cpc	r24, r1
    1c8c:	91 05       	cpc	r25, r1
    1c8e:	60 f4       	brcc	.+24     	;  0x1ca8
    1c90:	64 e4       	ldi	r22, 0x44	; 68
    1c92:	72 e0       	ldi	r23, 0x02	; 2
    1c94:	87 e4       	ldi	r24, 0x47	; 71
    1c96:	93 e0       	ldi	r25, 0x03	; 3
    1c98:	0e 94 9a 05 	call	0xb34	;  0xb34
    1c9c:	69 e6       	ldi	r22, 0x69	; 105
    1c9e:	72 e0       	ldi	r23, 0x02	; 2
    1ca0:	87 e4       	ldi	r24, 0x47	; 71
    1ca2:	93 e0       	ldi	r25, 0x03	; 3
    1ca4:	0e 94 9a 05 	call	0xb34	;  0xb34
    1ca8:	80 91 11 04 	lds	r24, 0x0411	;  0x800411
    1cac:	86 33       	cpi	r24, 0x36	; 54
    1cae:	08 f0       	brcs	.+2      	;  0x1cb2
    1cb0:	86 53       	subi	r24, 0x36	; 54
    1cb2:	20 91 7b 00 	lds	r18, 0x007B	;  0x80007b
    1cb6:	98 2f       	mov	r25, r24
    1cb8:	98 70       	andi	r25, 0x08	; 8
    1cba:	27 7f       	andi	r18, 0xF7	; 247
    1cbc:	92 2b       	or	r25, r18
    1cbe:	90 93 7b 00 	sts	0x007B, r25	;  0x80007b
    1cc2:	87 70       	andi	r24, 0x07	; 7
    1cc4:	80 64       	ori	r24, 0x40	; 64
    1cc6:	80 93 7c 00 	sts	0x007C, r24	;  0x80007c
    1cca:	80 91 7a 00 	lds	r24, 0x007A	;  0x80007a
    1cce:	80 64       	ori	r24, 0x40	; 64
    1cd0:	80 93 7a 00 	sts	0x007A, r24	;  0x80007a
    1cd4:	80 91 7a 00 	lds	r24, 0x007A	;  0x80007a
    1cd8:	86 fd       	sbrc	r24, 6
    1cda:	fc cf       	rjmp	.-8      	;  0x1cd4
    1cdc:	60 91 78 00 	lds	r22, 0x0078	;  0x800078
    1ce0:	70 91 79 00 	lds	r23, 0x0079	;  0x800079
    1ce4:	07 2e       	mov	r0, r23
    1ce6:	00 0c       	add	r0, r0
    1ce8:	88 0b       	sbc	r24, r24
    1cea:	99 0b       	sbc	r25, r25
    1cec:	0e 94 5a 11 	call	0x22b4	;  0x22b4
    1cf0:	2b e0       	ldi	r18, 0x0B	; 11
    1cf2:	3d e2       	ldi	r19, 0x2D	; 45
    1cf4:	44 eb       	ldi	r20, 0xB4	; 180
    1cf6:	5e e3       	ldi	r21, 0x3E	; 62
    1cf8:	0e 94 b9 11 	call	0x2372	;  0x2372
    1cfc:	69 83       	std	Y+1, r22	; 0x01
    1cfe:	7a 83       	std	Y+2, r23	; 0x02
    1d00:	8b 83       	std	Y+3, r24	; 0x03
    1d02:	9c 83       	std	Y+4, r25	; 0x04
    1d04:	0e 94 fb 10 	call	0x21f6	;  0x21f6
    1d08:	6b 01       	movw	r12, r22
    1d0a:	7c 01       	movw	r14, r24
    1d0c:	6c e6       	ldi	r22, 0x6C	; 108
    1d0e:	72 e0       	ldi	r23, 0x02	; 2
    1d10:	87 e4       	ldi	r24, 0x47	; 71
    1d12:	93 e0       	ldi	r25, 0x03	; 3
    1d14:	0e 94 9a 05 	call	0xb34	;  0xb34
    1d18:	c7 01       	movw	r24, r14
    1d1a:	b6 01       	movw	r22, r12
    1d1c:	23 e1       	ldi	r18, 0x13	; 19
    1d1e:	30 e0       	ldi	r19, 0x00	; 0
    1d20:	40 e0       	ldi	r20, 0x00	; 0
    1d22:	50 e0       	ldi	r21, 0x00	; 0
    1d24:	0e 94 77 12 	call	0x24ee	;  0x24ee
    1d28:	6f 5f       	subi	r22, 0xFF	; 255
    1d2a:	7f 4f       	sbci	r23, 0xFF	; 255
    1d2c:	8f 4f       	sbci	r24, 0xFF	; 255
    1d2e:	9f 4f       	sbci	r25, 0xFF	; 255
    1d30:	0e 94 5a 11 	call	0x22b4	;  0x22b4
    1d34:	ab 01       	movw	r20, r22
    1d36:	bc 01       	movw	r22, r24
    1d38:	22 e0       	ldi	r18, 0x02	; 2
    1d3a:	87 e4       	ldi	r24, 0x47	; 71
    1d3c:	93 e0       	ldi	r25, 0x03	; 3
    1d3e:	0e 94 f5 05 	call	0xbea	;  0xbea
    1d42:	69 e6       	ldi	r22, 0x69	; 105
    1d44:	72 e0       	ldi	r23, 0x02	; 2
    1d46:	87 e4       	ldi	r24, 0x47	; 71
    1d48:	93 e0       	ldi	r25, 0x03	; 3
    1d4a:	0e 94 9a 05 	call	0xb34	;  0xb34
    1d4e:	80 91 a9 04 	lds	r24, 0x04A9	;  0x8004a9
    1d52:	88 23       	and	r24, r24
    1d54:	09 f4       	brne	.+2      	;  0x1d58
    1d56:	83 c0       	rjmp	.+262    	;  0x1e5e
    1d58:	10 92 aa 04 	sts	0x04AA, r1	;  0x8004aa
    1d5c:	60 91 ad 04 	lds	r22, 0x04AD	;  0x8004ad
    1d60:	70 91 ae 04 	lds	r23, 0x04AE	;  0x8004ae
    1d64:	80 91 af 04 	lds	r24, 0x04AF	;  0x8004af
    1d68:	90 91 b0 04 	lds	r25, 0x04B0	;  0x8004b0
    1d6c:	0e 94 58 11 	call	0x22b0	;  0x22b0
    1d70:	28 e2       	ldi	r18, 0x28	; 40
    1d72:	3b e6       	ldi	r19, 0x6B	; 107
    1d74:	4e e6       	ldi	r20, 0x6E	; 110
    1d76:	5e e4       	ldi	r21, 0x4E	; 78
    1d78:	0e 94 be 13 	call	0x277c	;  0x277c
    1d7c:	6b 01       	movw	r12, r22
    1d7e:	7c 01       	movw	r14, r24
    1d80:	60 91 ab 04 	lds	r22, 0x04AB	;  0x8004ab
    1d84:	70 91 ac 04 	lds	r23, 0x04AC	;  0x8004ac
    1d88:	90 e0       	ldi	r25, 0x00	; 0
    1d8a:	80 e0       	ldi	r24, 0x00	; 0
    1d8c:	0e 94 58 11 	call	0x22b0	;  0x22b0
    1d90:	9b 01       	movw	r18, r22
    1d92:	ac 01       	movw	r20, r24
    1d94:	c7 01       	movw	r24, r14
    1d96:	b6 01       	movw	r22, r12
    1d98:	0e 94 db 12 	call	0x25b6	;  0x25b6
    1d9c:	2b 01       	movw	r4, r22
    1d9e:	3c 01       	movw	r6, r24
    1da0:	80 91 b1 04 	lds	r24, 0x04B1	;  0x8004b1
    1da4:	88 23       	and	r24, r24
    1da6:	21 f0       	breq	.+8      	;  0x1db0
    1da8:	77 fa       	bst	r7, 7
    1daa:	70 94       	com	r7
    1dac:	77 f8       	bld	r7, 7
    1dae:	70 94       	com	r7
    1db0:	60 91 b4 04 	lds	r22, 0x04B4	;  0x8004b4
    1db4:	70 91 b5 04 	lds	r23, 0x04B5	;  0x8004b5
    1db8:	80 91 b6 04 	lds	r24, 0x04B6	;  0x8004b6
    1dbc:	90 91 b7 04 	lds	r25, 0x04B7	;  0x8004b7
    1dc0:	0e 94 58 11 	call	0x22b0	;  0x22b0
    1dc4:	28 e2       	ldi	r18, 0x28	; 40
    1dc6:	3b e6       	ldi	r19, 0x6B	; 107
    1dc8:	4e e6       	ldi	r20, 0x6E	; 110
    1dca:	5e e4       	ldi	r21, 0x4E	; 78
    1dcc:	0e 94 be 13 	call	0x277c	;  0x277c
    1dd0:	6b 01       	movw	r12, r22
    1dd2:	7c 01       	movw	r14, r24
    1dd4:	60 91 b2 04 	lds	r22, 0x04B2	;  0x8004b2
    1dd8:	70 91 b3 04 	lds	r23, 0x04B3	;  0x8004b3
    1ddc:	90 e0       	ldi	r25, 0x00	; 0
    1dde:	80 e0       	ldi	r24, 0x00	; 0
    1de0:	0e 94 58 11 	call	0x22b0	;  0x22b0
    1de4:	9b 01       	movw	r18, r22
    1de6:	ac 01       	movw	r20, r24
    1de8:	c7 01       	movw	r24, r14
    1dea:	b6 01       	movw	r22, r12
    1dec:	0e 94 db 12 	call	0x25b6	;  0x25b6
    1df0:	9b 01       	movw	r18, r22
    1df2:	ac 01       	movw	r20, r24
    1df4:	80 91 b8 04 	lds	r24, 0x04B8	;  0x8004b8
    1df8:	81 11       	cpse	r24, r1
    1dfa:	50 58       	subi	r21, 0x80	; 128
    1dfc:	02 2f       	mov	r16, r18
    1dfe:	3d 87       	std	Y+13, r19	; 0x0d
    1e00:	4e 87       	std	Y+14, r20	; 0x0e
    1e02:	15 2f       	mov	r17, r21
    1e04:	35 c0       	rjmp	.+106    	;  0x1e70
    1e06:	82 30       	cpi	r24, 0x02	; 2
    1e08:	61 f4       	brne	.+24     	;  0x1e22
    1e0a:	10 92 90 00 	sts	0x0090, r1	;  0x800090
    1e0e:	80 93 91 00 	sts	0x0091, r24	;  0x800091
    1e12:	10 92 95 00 	sts	0x0095, r1	;  0x800095
    1e16:	10 92 94 00 	sts	0x0094, r1	;  0x800094
    1e1a:	88 bb       	out	0x18, r24	; 24
    1e1c:	80 93 71 00 	sts	0x0071, r24	;  0x800071
    1e20:	dd cd       	rjmp	.-1094   	;  0x19dc
    1e22:	83 30       	cpi	r24, 0x03	; 3
    1e24:	69 f4       	brne	.+26     	;  0x1e40
    1e26:	10 92 a0 00 	sts	0x00A0, r1	;  0x8000a0
    1e2a:	82 e0       	ldi	r24, 0x02	; 2
    1e2c:	80 93 a1 00 	sts	0x00A1, r24	;  0x8000a1
    1e30:	10 92 a5 00 	sts	0x00A5, r1	;  0x8000a5
    1e34:	10 92 a4 00 	sts	0x00A4, r1	;  0x8000a4
    1e38:	89 bb       	out	0x19, r24	; 25
    1e3a:	80 93 72 00 	sts	0x0072, r24	;  0x800072
    1e3e:	ce cd       	rjmp	.-1124   	;  0x19dc
    1e40:	81 11       	cpse	r24, r1
    1e42:	cc cd       	rjmp	.-1128   	;  0x19dc
    1e44:	10 92 20 01 	sts	0x0120, r1	;  0x800120
    1e48:	82 e0       	ldi	r24, 0x02	; 2
    1e4a:	80 93 21 01 	sts	0x0121, r24	;  0x800121
    1e4e:	10 92 25 01 	sts	0x0125, r1	;  0x800125
    1e52:	10 92 24 01 	sts	0x0124, r1	;  0x800124
    1e56:	8a bb       	out	0x1a, r24	; 26
    1e58:	80 93 73 00 	sts	0x0073, r24	;  0x800073
    1e5c:	bf cd       	rjmp	.-1154   	;  0x19dc
    1e5e:	41 2c       	mov	r4, r1
    1e60:	51 2c       	mov	r5, r1
    1e62:	32 01       	movw	r6, r4
    1e64:	00 e0       	ldi	r16, 0x00	; 0
    1e66:	1d 86       	std	Y+13, r1	; 0x0d
    1e68:	1e 86       	std	Y+14, r1	; 0x0e
    1e6a:	10 e0       	ldi	r17, 0x00	; 0
    1e6c:	a3 01       	movw	r20, r6
    1e6e:	92 01       	movw	r18, r4
    1e70:	62 e1       	ldi	r22, 0x12	; 18
    1e72:	73 e0       	ldi	r23, 0x03	; 3
    1e74:	84 e9       	ldi	r24, 0x94	; 148
    1e76:	92 ec       	ldi	r25, 0xC2	; 194
    1e78:	0e 94 da 12 	call	0x25b4	;  0x25b4
    1e7c:	25 e3       	ldi	r18, 0x35	; 53
    1e7e:	3a ef       	ldi	r19, 0xFA	; 250
    1e80:	4e e8       	ldi	r20, 0x8E	; 142
    1e82:	5c e3       	ldi	r21, 0x3C	; 60
    1e84:	0e 94 b9 11 	call	0x2372	;  0x2372
    1e88:	4b 01       	movw	r8, r22
    1e8a:	5c 01       	movw	r10, r24
    1e8c:	25 e3       	ldi	r18, 0x35	; 53
    1e8e:	3a ef       	ldi	r19, 0xFA	; 250
    1e90:	4e e8       	ldi	r20, 0x8E	; 142
    1e92:	5c e3       	ldi	r21, 0x3C	; 60
    1e94:	c3 01       	movw	r24, r6
    1e96:	b2 01       	movw	r22, r4
    1e98:	0e 94 b9 11 	call	0x2372	;  0x2372
    1e9c:	6b 01       	movw	r12, r22
    1e9e:	7c 01       	movw	r14, r24
    1ea0:	c5 01       	movw	r24, r10
    1ea2:	b4 01       	movw	r22, r8
    1ea4:	0e 94 d9 14 	call	0x29b2	;  0x29b2
    1ea8:	6d 83       	std	Y+5, r22	; 0x05
    1eaa:	7e 83       	std	Y+6, r23	; 0x06
    1eac:	8f 83       	std	Y+7, r24	; 0x07
    1eae:	98 87       	std	Y+8, r25	; 0x08
    1eb0:	c7 01       	movw	r24, r14
    1eb2:	b6 01       	movw	r22, r12
    1eb4:	0e 94 d9 14 	call	0x29b2	;  0x29b2
    1eb8:	69 87       	std	Y+9, r22	; 0x09
    1eba:	7a 87       	std	Y+10, r23	; 0x0a
    1ebc:	8b 87       	std	Y+11, r24	; 0x0b
    1ebe:	9c 87       	std	Y+12, r25	; 0x0c
    1ec0:	c5 01       	movw	r24, r10
    1ec2:	b4 01       	movw	r22, r8
    1ec4:	0e 94 b9 13 	call	0x2772	;  0x2772
    1ec8:	4b 01       	movw	r8, r22
    1eca:	5c 01       	movw	r10, r24
    1ecc:	2c e8       	ldi	r18, 0x8C	; 140
    1ece:	3b e0       	ldi	r19, 0x0B	; 11
    1ed0:	42 e4       	ldi	r20, 0x42	; 66
    1ed2:	5f e3       	ldi	r21, 0x3F	; 63
    1ed4:	69 85       	ldd	r22, Y+9	; 0x09
    1ed6:	7a 85       	ldd	r23, Y+10	; 0x0a
    1ed8:	8b 85       	ldd	r24, Y+11	; 0x0b
    1eda:	9c 85       	ldd	r25, Y+12	; 0x0c
    1edc:	0e 94 b9 11 	call	0x2372	;  0x2372
    1ee0:	a5 01       	movw	r20, r10
    1ee2:	94 01       	movw	r18, r8
    1ee4:	0e 94 b9 11 	call	0x2372	;  0x2372
    1ee8:	4b 01       	movw	r8, r22
    1eea:	5c 01       	movw	r10, r24
    1eec:	c7 01       	movw	r24, r14
    1eee:	b6 01       	movw	r22, r12
    1ef0:	0e 94 b9 13 	call	0x2772	;  0x2772
    1ef4:	24 e0       	ldi	r18, 0x04	; 4
    1ef6:	3b ef       	ldi	r19, 0xFB	; 251
    1ef8:	46 e2       	ldi	r20, 0x26	; 38
    1efa:	5f e3       	ldi	r21, 0x3F	; 63
    1efc:	0e 94 b9 11 	call	0x2372	;  0x2372
    1f00:	a5 01       	movw	r20, r10
    1f02:	94 01       	movw	r18, r8
    1f04:	0e 94 da 12 	call	0x25b4	;  0x25b4
    1f08:	6b 01       	movw	r12, r22
    1f0a:	7c 01       	movw	r14, r24
    1f0c:	2c e8       	ldi	r18, 0x8C	; 140
    1f0e:	3b e0       	ldi	r19, 0x0B	; 11
    1f10:	42 e4       	ldi	r20, 0x42	; 66
    1f12:	5f e3       	ldi	r21, 0x3F	; 63
    1f14:	6d 81       	ldd	r22, Y+5	; 0x05
    1f16:	7e 81       	ldd	r23, Y+6	; 0x06
    1f18:	8f 81       	ldd	r24, Y+7	; 0x07
    1f1a:	98 85       	ldd	r25, Y+8	; 0x08
    1f1c:	0e 94 b9 11 	call	0x2372	;  0x2372
    1f20:	a7 01       	movw	r20, r14
    1f22:	96 01       	movw	r18, r12
    1f24:	0e 94 5a 13 	call	0x26b4	;  0x26b4
    1f28:	6b 01       	movw	r12, r22
    1f2a:	7c 01       	movw	r14, r24
    1f2c:	20 e0       	ldi	r18, 0x00	; 0
    1f2e:	30 e0       	ldi	r19, 0x00	; 0
    1f30:	a9 01       	movw	r20, r18
    1f32:	0e 94 53 11 	call	0x22a6	;  0x22a6
    1f36:	87 ff       	sbrs	r24, 7
    1f38:	0a c0       	rjmp	.+20     	;  0x1f4e
    1f3a:	2b ed       	ldi	r18, 0xDB	; 219
    1f3c:	3f e0       	ldi	r19, 0x0F	; 15
    1f3e:	49 ec       	ldi	r20, 0xC9	; 201
    1f40:	50 e4       	ldi	r21, 0x40	; 64
    1f42:	c7 01       	movw	r24, r14
    1f44:	b6 01       	movw	r22, r12
    1f46:	0e 94 db 12 	call	0x25b6	;  0x25b6
    1f4a:	6b 01       	movw	r12, r22
    1f4c:	7c 01       	movw	r14, r24
    1f4e:	21 ee       	ldi	r18, 0xE1	; 225
    1f50:	3e e2       	ldi	r19, 0x2E	; 46
    1f52:	45 e6       	ldi	r20, 0x65	; 101
    1f54:	52 e4       	ldi	r21, 0x42	; 66
    1f56:	c7 01       	movw	r24, r14
    1f58:	b6 01       	movw	r22, r12
    1f5a:	0e 94 b9 11 	call	0x2372	;  0x2372
    1f5e:	6b 01       	movw	r12, r22
    1f60:	7c 01       	movw	r14, r24
    1f62:	29 81       	ldd	r18, Y+1	; 0x01
    1f64:	3a 81       	ldd	r19, Y+2	; 0x02
    1f66:	4b 81       	ldd	r20, Y+3	; 0x03
    1f68:	5c 81       	ldd	r21, Y+4	; 0x04
    1f6a:	0e 94 da 12 	call	0x25b4	;  0x25b4
    1f6e:	0e 94 30 14 	call	0x2860	;  0x2860
    1f72:	db 01       	movw	r26, r22
    1f74:	77 ff       	sbrs	r23, 7
    1f76:	ee c0       	rjmp	.+476    	;  0x2154
    1f78:	a8 59       	subi	r26, 0x98	; 152
    1f7a:	be 4f       	sbci	r27, 0xFE	; 254
    1f7c:	b7 fd       	sbrc	r27, 7
    1f7e:	e7 c0       	rjmp	.+462    	;  0x214e
    1f80:	a5 3b       	cpi	r26, 0xB5	; 181
    1f82:	b1 05       	cpc	r27, r1
    1f84:	14 f0       	brlt	.+4      	;  0x1f8a
    1f86:	a4 eb       	ldi	r26, 0xB4	; 180
    1f88:	b0 e0       	ldi	r27, 0x00	; 0
    1f8a:	80 91 a7 04 	lds	r24, 0x04A7	;  0x8004a7
    1f8e:	98 e8       	ldi	r25, 0x88	; 136
    1f90:	89 2e       	mov	r8, r25
    1f92:	91 2c       	mov	r9, r1
    1f94:	88 1a       	sub	r8, r24
    1f96:	91 08       	sbc	r9, r1
    1f98:	87 fd       	sbrc	r24, 7
    1f9a:	93 94       	inc	r9
    1f9c:	88 0c       	add	r8, r8
    1f9e:	99 1c       	adc	r9, r9
    1fa0:	88 0c       	add	r8, r8
    1fa2:	99 1c       	adc	r9, r9
    1fa4:	09 2c       	mov	r0, r9
    1fa6:	00 0c       	add	r0, r0
    1fa8:	aa 08       	sbc	r10, r10
    1faa:	bb 08       	sbc	r11, r11
    1fac:	80 91 a8 04 	lds	r24, 0x04A8	;  0x8004a8
    1fb0:	91 01       	movw	r18, r2
    1fb2:	28 1b       	sub	r18, r24
    1fb4:	31 09       	sbc	r19, r1
    1fb6:	87 fd       	sbrc	r24, 7
    1fb8:	33 95       	inc	r19
    1fba:	22 0f       	add	r18, r18
    1fbc:	33 1f       	adc	r19, r19
    1fbe:	22 0f       	add	r18, r18
    1fc0:	33 1f       	adc	r19, r19
    1fc2:	03 2e       	mov	r0, r19
    1fc4:	00 0c       	add	r0, r0
    1fc6:	44 0b       	sbc	r20, r20
    1fc8:	55 0b       	sbc	r21, r21
    1fca:	28 19       	sub	r18, r8
    1fcc:	39 09       	sbc	r19, r9
    1fce:	4a 09       	sbc	r20, r10
    1fd0:	5b 09       	sbc	r21, r11
    1fd2:	0e 94 a1 12 	call	0x2542	;  0x2542
    1fd6:	24 eb       	ldi	r18, 0xB4	; 180
    1fd8:	30 e0       	ldi	r19, 0x00	; 0
    1fda:	40 e0       	ldi	r20, 0x00	; 0
    1fdc:	50 e0       	ldi	r21, 0x00	; 0
    1fde:	0e 94 77 12 	call	0x24ee	;  0x24ee
    1fe2:	82 0e       	add	r8, r18
    1fe4:	93 1e       	adc	r9, r19
    1fe6:	a4 1e       	adc	r10, r20
    1fe8:	b5 1e       	adc	r11, r21
    1fea:	d4 01       	movw	r26, r8
    1fec:	40 91 a6 04 	lds	r20, 0x04A6	;  0x8004a6
    1ff0:	40 33       	cpi	r20, 0x30	; 48
    1ff2:	88 f5       	brcc	.+98     	;  0x2056
    1ff4:	80 91 a7 04 	lds	r24, 0x04A7	;  0x8004a7
    1ff8:	28 e8       	ldi	r18, 0x88	; 136
    1ffa:	30 e0       	ldi	r19, 0x00	; 0
    1ffc:	28 1b       	sub	r18, r24
    1ffe:	31 09       	sbc	r19, r1
    2000:	87 fd       	sbrc	r24, 7
    2002:	33 95       	inc	r19
    2004:	c9 01       	movw	r24, r18
    2006:	88 0f       	add	r24, r24
    2008:	99 1f       	adc	r25, r25
    200a:	88 0f       	add	r24, r24
    200c:	99 1f       	adc	r25, r25
    200e:	a8 17       	cp	r26, r24
    2010:	b9 07       	cpc	r27, r25
    2012:	84 f0       	brlt	.+32     	;  0x2034
    2014:	80 91 a8 04 	lds	r24, 0x04A8	;  0x8004a8
    2018:	91 01       	movw	r18, r2
    201a:	28 1b       	sub	r18, r24
    201c:	31 09       	sbc	r19, r1
    201e:	87 fd       	sbrc	r24, 7
    2020:	33 95       	inc	r19
    2022:	c9 01       	movw	r24, r18
    2024:	88 0f       	add	r24, r24
    2026:	99 1f       	adc	r25, r25
    2028:	88 0f       	add	r24, r24
    202a:	99 1f       	adc	r25, r25
    202c:	a8 17       	cp	r26, r24
    202e:	b9 07       	cpc	r27, r25
    2030:	0c f4       	brge	.+2      	;  0x2034
    2032:	cd 01       	movw	r24, r26
    2034:	02 97       	sbiw	r24, 0x02	; 2
    2036:	88 0f       	add	r24, r24
    2038:	99 1f       	adc	r25, r25
    203a:	6f b7       	in	r22, 0x3f	; 63
    203c:	f8 94       	cli
    203e:	50 e0       	ldi	r21, 0x00	; 0
    2040:	9a 01       	movw	r18, r20
    2042:	22 0f       	add	r18, r18
    2044:	33 1f       	adc	r19, r19
    2046:	24 0f       	add	r18, r20
    2048:	35 1f       	adc	r19, r21
    204a:	f9 01       	movw	r30, r18
    204c:	eb 5e       	subi	r30, 0xEB	; 235
    204e:	fb 4f       	sbci	r31, 0xFB	; 251
    2050:	92 83       	std	Z+2, r25	; 0x02
    2052:	81 83       	std	Z+1, r24	; 0x01
    2054:	6f bf       	out	0x3f, r22	; 63
    2056:	61 e0       	ldi	r22, 0x01	; 1
    2058:	85 ee       	ldi	r24, 0xE5	; 229
    205a:	93 e0       	ldi	r25, 0x03	; 3
    205c:	0e 94 39 04 	call	0x872	;  0x872
    2060:	83 70       	andi	r24, 0x03	; 3
    2062:	83 30       	cpi	r24, 0x03	; 3
    2064:	79 f1       	breq	.+94     	;  0x20c4
    2066:	62 e1       	ldi	r22, 0x12	; 18
    2068:	85 ee       	ldi	r24, 0xE5	; 229
    206a:	93 e0       	ldi	r25, 0x03	; 3
    206c:	0e 94 39 04 	call	0x872	;  0x872
    2070:	83 ff       	sbrs	r24, 3
    2072:	06 c0       	rjmp	.+12     	;  0x2080
    2074:	48 e0       	ldi	r20, 0x08	; 8
    2076:	62 e9       	ldi	r22, 0x92	; 146
    2078:	85 ee       	ldi	r24, 0xE5	; 229
    207a:	93 e0       	ldi	r25, 0x03	; 3
    207c:	0e 94 14 04 	call	0x828	;  0x828
    2080:	41 e8       	ldi	r20, 0x81	; 129
    2082:	61 e8       	ldi	r22, 0x81	; 129
    2084:	85 ee       	ldi	r24, 0xE5	; 229
    2086:	93 e0       	ldi	r25, 0x03	; 3
    2088:	0e 94 14 04 	call	0x828	;  0x828
    208c:	10 92 02 04 	sts	0x0402, r1	;  0x800402
    2090:	10 92 01 04 	sts	0x0401, r1	;  0x800401
    2094:	6d e1       	ldi	r22, 0x1D	; 29
    2096:	85 ee       	ldi	r24, 0xE5	; 229
    2098:	93 e0       	ldi	r25, 0x03	; 3
    209a:	0e 94 39 04 	call	0x872	;  0x872
    209e:	48 2f       	mov	r20, r24
    20a0:	4e 7f       	andi	r20, 0xFE	; 254
    20a2:	6d e9       	ldi	r22, 0x9D	; 157
    20a4:	85 ee       	ldi	r24, 0xE5	; 229
    20a6:	93 e0       	ldi	r25, 0x03	; 3
    20a8:	0e 94 14 04 	call	0x828	;  0x828
    20ac:	40 e0       	ldi	r20, 0x00	; 0
    20ae:	6d e8       	ldi	r22, 0x8D	; 141
    20b0:	85 ee       	ldi	r24, 0xE5	; 229
    20b2:	93 e0       	ldi	r25, 0x03	; 3
    20b4:	0e 94 14 04 	call	0x828	;  0x828
    20b8:	40 e0       	ldi	r20, 0x00	; 0
    20ba:	62 ea       	ldi	r22, 0xA2	; 162
    20bc:	85 ee       	ldi	r24, 0xE5	; 229
    20be:	93 e0       	ldi	r25, 0x03	; 3
    20c0:	0e 94 14 04 	call	0x828	;  0x828
    20c4:	69 e7       	ldi	r22, 0x79	; 121
    20c6:	72 e0       	ldi	r23, 0x02	; 2
    20c8:	85 ee       	ldi	r24, 0xE5	; 229
    20ca:	93 e0       	ldi	r25, 0x03	; 3
    20cc:	0e 94 9a 05 	call	0xb34	;  0xb34
    20d0:	26 e0       	ldi	r18, 0x06	; 6
    20d2:	b3 01       	movw	r22, r6
    20d4:	a2 01       	movw	r20, r4
    20d6:	85 ee       	ldi	r24, 0xE5	; 229
    20d8:	93 e0       	ldi	r25, 0x03	; 3
    20da:	0e 94 f5 05 	call	0xbea	;  0xbea
    20de:	64 e8       	ldi	r22, 0x84	; 132
    20e0:	72 e0       	ldi	r23, 0x02	; 2
    20e2:	85 ee       	ldi	r24, 0xE5	; 229
    20e4:	93 e0       	ldi	r25, 0x03	; 3
    20e6:	0e 94 9a 05 	call	0xb34	;  0xb34
    20ea:	26 e0       	ldi	r18, 0x06	; 6
    20ec:	40 2f       	mov	r20, r16
    20ee:	5d 85       	ldd	r21, Y+13	; 0x0d
    20f0:	6e 85       	ldd	r22, Y+14	; 0x0e
    20f2:	71 2f       	mov	r23, r17
    20f4:	85 ee       	ldi	r24, 0xE5	; 229
    20f6:	93 e0       	ldi	r25, 0x03	; 3
    20f8:	0e 94 f5 05 	call	0xbea	;  0xbea
    20fc:	61 e9       	ldi	r22, 0x91	; 145
    20fe:	72 e0       	ldi	r23, 0x02	; 2
    2100:	85 ee       	ldi	r24, 0xE5	; 229
    2102:	93 e0       	ldi	r25, 0x03	; 3
    2104:	0e 94 9a 05 	call	0xb34	;  0xb34
    2108:	22 e0       	ldi	r18, 0x02	; 2
    210a:	b7 01       	movw	r22, r14
    210c:	a6 01       	movw	r20, r12
    210e:	85 ee       	ldi	r24, 0xE5	; 229
    2110:	93 e0       	ldi	r25, 0x03	; 3
    2112:	0e 94 f5 05 	call	0xbea	;  0xbea
    2116:	43 e8       	ldi	r20, 0x83	; 131
    2118:	61 e8       	ldi	r22, 0x81	; 129
    211a:	85 ee       	ldi	r24, 0xE5	; 229
    211c:	93 e0       	ldi	r25, 0x03	; 3
    211e:	0e 94 14 04 	call	0x828	;  0x828
    2122:	62 e1       	ldi	r22, 0x12	; 18
    2124:	85 ee       	ldi	r24, 0xE5	; 229
    2126:	93 e0       	ldi	r25, 0x03	; 3
    2128:	0e 94 39 04 	call	0x872	;  0x872
    212c:	83 ff       	sbrs	r24, 3
    212e:	f9 cf       	rjmp	.-14     	;  0x2122
    2130:	48 e0       	ldi	r20, 0x08	; 8
    2132:	62 e9       	ldi	r22, 0x92	; 146
    2134:	85 ee       	ldi	r24, 0xE5	; 229
    2136:	93 e0       	ldi	r25, 0x03	; 3
    2138:	0e 94 14 04 	call	0x828	;  0x828
    213c:	68 ee       	ldi	r22, 0xE8	; 232
    213e:	73 e0       	ldi	r23, 0x03	; 3
    2140:	80 e0       	ldi	r24, 0x00	; 0
    2142:	90 e0       	ldi	r25, 0x00	; 0
    2144:	0e 94 a7 02 	call	0x54e	;  0x54e
    2148:	0e 94 e7 03 	call	0x7ce	;  0x7ce
    214c:	4c cd       	rjmp	.-1384   	;  0x1be6
    214e:	b0 e0       	ldi	r27, 0x00	; 0
    2150:	a0 e0       	ldi	r26, 0x00	; 0
    2152:	1b cf       	rjmp	.-458    	;  0x1f8a
    2154:	60 32       	cpi	r22, 0x20	; 32
    2156:	72 40       	sbci	r23, 0x02	; 2
    2158:	0c f0       	brlt	.+2      	;  0x215c
    215a:	48 cf       	rjmp	.-368    	;  0x1fec
    215c:	11 cf       	rjmp	.-478    	;  0x1f80
    215e:	8f 92       	push	r8
    2160:	9f 92       	push	r9
    2162:	af 92       	push	r10
    2164:	bf 92       	push	r11
    2166:	cf 92       	push	r12
    2168:	df 92       	push	r13
    216a:	ef 92       	push	r14
    216c:	ff 92       	push	r15
    216e:	cf 93       	push	r28
    2170:	df 93       	push	r29
    2172:	ec 01       	movw	r28, r24
    2174:	68 81       	ld	r22, Y
    2176:	79 81       	ldd	r23, Y+1	; 0x01
    2178:	8a 81       	ldd	r24, Y+2	; 0x02
    217a:	9b 81       	ldd	r25, Y+3	; 0x03
    217c:	61 15       	cp	r22, r1
    217e:	71 05       	cpc	r23, r1
    2180:	81 05       	cpc	r24, r1
    2182:	91 05       	cpc	r25, r1
    2184:	21 f4       	brne	.+8      	;  0x218e
    2186:	64 e2       	ldi	r22, 0x24	; 36
    2188:	79 ed       	ldi	r23, 0xD9	; 217
    218a:	8b e5       	ldi	r24, 0x5B	; 91
    218c:	97 e0       	ldi	r25, 0x07	; 7
    218e:	2d e1       	ldi	r18, 0x1D	; 29
    2190:	33 ef       	ldi	r19, 0xF3	; 243
    2192:	41 e0       	ldi	r20, 0x01	; 1
    2194:	50 e0       	ldi	r21, 0x00	; 0
    2196:	0e 94 77 12 	call	0x24ee	;  0x24ee
    219a:	49 01       	movw	r8, r18
    219c:	5a 01       	movw	r10, r20
    219e:	9b 01       	movw	r18, r22
    21a0:	ac 01       	movw	r20, r24
    21a2:	a7 ea       	ldi	r26, 0xA7	; 167
    21a4:	b1 e4       	ldi	r27, 0x41	; 65
    21a6:	0e 94 96 12 	call	0x252c	;  0x252c
    21aa:	6b 01       	movw	r12, r22
    21ac:	7c 01       	movw	r14, r24
    21ae:	ac ee       	ldi	r26, 0xEC	; 236
    21b0:	b4 ef       	ldi	r27, 0xF4	; 244
    21b2:	a5 01       	movw	r20, r10
    21b4:	94 01       	movw	r18, r8
    21b6:	0e 94 a4 12 	call	0x2548	;  0x2548
    21ba:	c6 0e       	add	r12, r22
    21bc:	d7 1e       	adc	r13, r23
    21be:	e8 1e       	adc	r14, r24
    21c0:	f9 1e       	adc	r15, r25
    21c2:	f7 fe       	sbrs	r15, 7
    21c4:	06 c0       	rjmp	.+12     	;  0x21d2
    21c6:	81 e0       	ldi	r24, 0x01	; 1
    21c8:	c8 1a       	sub	r12, r24
    21ca:	d1 08       	sbc	r13, r1
    21cc:	e1 08       	sbc	r14, r1
    21ce:	80 e8       	ldi	r24, 0x80	; 128
    21d0:	f8 0a       	sbc	r15, r24
    21d2:	c8 82       	st	Y, r12
    21d4:	d9 82       	std	Y+1, r13	; 0x01
    21d6:	ea 82       	std	Y+2, r14	; 0x02
    21d8:	fb 82       	std	Y+3, r15	; 0x03
    21da:	c7 01       	movw	r24, r14
    21dc:	b6 01       	movw	r22, r12
    21de:	9f 77       	andi	r25, 0x7F	; 127
    21e0:	df 91       	pop	r29
    21e2:	cf 91       	pop	r28
    21e4:	ff 90       	pop	r15
    21e6:	ef 90       	pop	r14
    21e8:	df 90       	pop	r13
    21ea:	cf 90       	pop	r12
    21ec:	bf 90       	pop	r11
    21ee:	af 90       	pop	r10
    21f0:	9f 90       	pop	r9
    21f2:	8f 90       	pop	r8
    21f4:	08 95       	ret
    21f6:	8f 92       	push	r8
    21f8:	9f 92       	push	r9
    21fa:	af 92       	push	r10
    21fc:	bf 92       	push	r11
    21fe:	cf 92       	push	r12
    2200:	df 92       	push	r13
    2202:	ef 92       	push	r14
    2204:	ff 92       	push	r15
    2206:	60 91 10 02 	lds	r22, 0x0210	;  0x800210
    220a:	70 91 11 02 	lds	r23, 0x0211	;  0x800211
    220e:	80 91 12 02 	lds	r24, 0x0212	;  0x800212
    2212:	90 91 13 02 	lds	r25, 0x0213	;  0x800213
    2216:	61 15       	cp	r22, r1
    2218:	71 05       	cpc	r23, r1
    221a:	81 05       	cpc	r24, r1
    221c:	91 05       	cpc	r25, r1
    221e:	21 f4       	brne	.+8      	;  0x2228
    2220:	64 e2       	ldi	r22, 0x24	; 36
    2222:	79 ed       	ldi	r23, 0xD9	; 217
    2224:	8b e5       	ldi	r24, 0x5B	; 91
    2226:	97 e0       	ldi	r25, 0x07	; 7
    2228:	2d e1       	ldi	r18, 0x1D	; 29
    222a:	33 ef       	ldi	r19, 0xF3	; 243
    222c:	41 e0       	ldi	r20, 0x01	; 1
    222e:	50 e0       	ldi	r21, 0x00	; 0
    2230:	0e 94 77 12 	call	0x24ee	;  0x24ee
    2234:	49 01       	movw	r8, r18
    2236:	5a 01       	movw	r10, r20
    2238:	9b 01       	movw	r18, r22
    223a:	ac 01       	movw	r20, r24
    223c:	a7 ea       	ldi	r26, 0xA7	; 167
    223e:	b1 e4       	ldi	r27, 0x41	; 65
    2240:	0e 94 96 12 	call	0x252c	;  0x252c
    2244:	6b 01       	movw	r12, r22
    2246:	7c 01       	movw	r14, r24
    2248:	ac ee       	ldi	r26, 0xEC	; 236
    224a:	b4 ef       	ldi	r27, 0xF4	; 244
    224c:	a5 01       	movw	r20, r10
    224e:	94 01       	movw	r18, r8
    2250:	0e 94 a4 12 	call	0x2548	;  0x2548
    2254:	c6 0e       	add	r12, r22
    2256:	d7 1e       	adc	r13, r23
    2258:	e8 1e       	adc	r14, r24
    225a:	f9 1e       	adc	r15, r25
    225c:	f7 fe       	sbrs	r15, 7
    225e:	06 c0       	rjmp	.+12     	;  0x226c
    2260:	81 e0       	ldi	r24, 0x01	; 1
    2262:	c8 1a       	sub	r12, r24
    2264:	d1 08       	sbc	r13, r1
    2266:	e1 08       	sbc	r14, r1
    2268:	80 e8       	ldi	r24, 0x80	; 128
    226a:	f8 0a       	sbc	r15, r24
    226c:	c0 92 10 02 	sts	0x0210, r12	;  0x800210
    2270:	d0 92 11 02 	sts	0x0211, r13	;  0x800211
    2274:	e0 92 12 02 	sts	0x0212, r14	;  0x800212
    2278:	f0 92 13 02 	sts	0x0213, r15	;  0x800213
    227c:	c7 01       	movw	r24, r14
    227e:	b6 01       	movw	r22, r12
    2280:	9f 77       	andi	r25, 0x7F	; 127
    2282:	ff 90       	pop	r15
    2284:	ef 90       	pop	r14
    2286:	df 90       	pop	r13
    2288:	cf 90       	pop	r12
    228a:	bf 90       	pop	r11
    228c:	af 90       	pop	r10
    228e:	9f 90       	pop	r9
    2290:	8f 90       	pop	r8
    2292:	08 95       	ret
    2294:	60 93 10 02 	sts	0x0210, r22	;  0x800210
    2298:	70 93 11 02 	sts	0x0211, r23	;  0x800211
    229c:	80 93 12 02 	sts	0x0212, r24	;  0x800212
    22a0:	90 93 13 02 	sts	0x0213, r25	;  0x800213
    22a4:	08 95       	ret
    22a6:	0e 94 95 11 	call	0x232a	;  0x232a
    22aa:	08 f4       	brcc	.+2      	;  0x22ae
    22ac:	81 e0       	ldi	r24, 0x01	; 1
    22ae:	08 95       	ret
    22b0:	e8 94       	clt
    22b2:	09 c0       	rjmp	.+18     	;  0x22c6
    22b4:	97 fb       	bst	r25, 7
    22b6:	3e f4       	brtc	.+14     	;  0x22c6
    22b8:	90 95       	com	r25
    22ba:	80 95       	com	r24
    22bc:	70 95       	com	r23
    22be:	61 95       	neg	r22
    22c0:	7f 4f       	sbci	r23, 0xFF	; 255
    22c2:	8f 4f       	sbci	r24, 0xFF	; 255
    22c4:	9f 4f       	sbci	r25, 0xFF	; 255
    22c6:	99 23       	and	r25, r25
    22c8:	a9 f0       	breq	.+42     	;  0x22f4
    22ca:	f9 2f       	mov	r31, r25
    22cc:	96 e9       	ldi	r25, 0x96	; 150
    22ce:	bb 27       	eor	r27, r27
    22d0:	93 95       	inc	r25
    22d2:	f6 95       	lsr	r31
    22d4:	87 95       	ror	r24
    22d6:	77 95       	ror	r23
    22d8:	67 95       	ror	r22
    22da:	b7 95       	ror	r27
    22dc:	f1 11       	cpse	r31, r1
    22de:	f8 cf       	rjmp	.-16     	;  0x22d0
    22e0:	fa f4       	brpl	.+62     	;  0x2320
    22e2:	bb 0f       	add	r27, r27
    22e4:	11 f4       	brne	.+4      	;  0x22ea
    22e6:	60 ff       	sbrs	r22, 0
    22e8:	1b c0       	rjmp	.+54     	;  0x2320
    22ea:	6f 5f       	subi	r22, 0xFF	; 255
    22ec:	7f 4f       	sbci	r23, 0xFF	; 255
    22ee:	8f 4f       	sbci	r24, 0xFF	; 255
    22f0:	9f 4f       	sbci	r25, 0xFF	; 255
    22f2:	16 c0       	rjmp	.+44     	;  0x2320
    22f4:	88 23       	and	r24, r24
    22f6:	11 f0       	breq	.+4      	;  0x22fc
    22f8:	96 e9       	ldi	r25, 0x96	; 150
    22fa:	11 c0       	rjmp	.+34     	;  0x231e
    22fc:	77 23       	and	r23, r23
    22fe:	21 f0       	breq	.+8      	;  0x2308
    2300:	9e e8       	ldi	r25, 0x8E	; 142
    2302:	87 2f       	mov	r24, r23
    2304:	76 2f       	mov	r23, r22
    2306:	05 c0       	rjmp	.+10     	;  0x2312
    2308:	66 23       	and	r22, r22
    230a:	71 f0       	breq	.+28     	;  0x2328
    230c:	96 e8       	ldi	r25, 0x86	; 134
    230e:	86 2f       	mov	r24, r22
    2310:	70 e0       	ldi	r23, 0x00	; 0
    2312:	60 e0       	ldi	r22, 0x00	; 0
    2314:	2a f0       	brmi	.+10     	;  0x2320
    2316:	9a 95       	dec	r25
    2318:	66 0f       	add	r22, r22
    231a:	77 1f       	adc	r23, r23
    231c:	88 1f       	adc	r24, r24
    231e:	da f7       	brpl	.-10     	;  0x2316
    2320:	88 0f       	add	r24, r24
    2322:	96 95       	lsr	r25
    2324:	87 95       	ror	r24
    2326:	97 f9       	bld	r25, 7
    2328:	08 95       	ret
    232a:	99 0f       	add	r25, r25
    232c:	00 08       	sbc	r0, r0
    232e:	55 0f       	add	r21, r21
    2330:	aa 0b       	sbc	r26, r26
    2332:	e0 e8       	ldi	r30, 0x80	; 128
    2334:	fe ef       	ldi	r31, 0xFE	; 254
    2336:	16 16       	cp	r1, r22
    2338:	17 06       	cpc	r1, r23
    233a:	e8 07       	cpc	r30, r24
    233c:	f9 07       	cpc	r31, r25
    233e:	c0 f0       	brcs	.+48     	;  0x2370
    2340:	12 16       	cp	r1, r18
    2342:	13 06       	cpc	r1, r19
    2344:	e4 07       	cpc	r30, r20
    2346:	f5 07       	cpc	r31, r21
    2348:	98 f0       	brcs	.+38     	;  0x2370
    234a:	62 1b       	sub	r22, r18
    234c:	73 0b       	sbc	r23, r19
    234e:	84 0b       	sbc	r24, r20
    2350:	95 0b       	sbc	r25, r21
    2352:	39 f4       	brne	.+14     	;  0x2362
    2354:	0a 26       	eor	r0, r26
    2356:	61 f0       	breq	.+24     	;  0x2370
    2358:	23 2b       	or	r18, r19
    235a:	24 2b       	or	r18, r20
    235c:	25 2b       	or	r18, r21
    235e:	21 f4       	brne	.+8      	;  0x2368
    2360:	08 95       	ret
    2362:	0a 26       	eor	r0, r26
    2364:	09 f4       	brne	.+2      	;  0x2368
    2366:	a1 40       	sbci	r26, 0x01	; 1
    2368:	a6 95       	lsr	r26
    236a:	8f ef       	ldi	r24, 0xFF	; 255
    236c:	81 1d       	adc	r24, r1
    236e:	81 1d       	adc	r24, r1
    2370:	08 95       	ret
    2372:	0e 94 cc 11 	call	0x2398	;  0x2398
    2376:	0c 94 3d 12 	jmp	0x247a	;  0x247a
    237a:	0e 94 2f 12 	call	0x245e	;  0x245e
    237e:	38 f0       	brcs	.+14     	;  0x238e
    2380:	0e 94 36 12 	call	0x246c	;  0x246c
    2384:	20 f0       	brcs	.+8      	;  0x238e
    2386:	95 23       	and	r25, r21
    2388:	11 f0       	breq	.+4      	;  0x238e
    238a:	0c 94 26 12 	jmp	0x244c	;  0x244c
    238e:	0c 94 2c 12 	jmp	0x2458	;  0x2458
    2392:	11 24       	eor	r1, r1
    2394:	0c 94 71 12 	jmp	0x24e2	;  0x24e2
    2398:	0e 94 4e 12 	call	0x249c	;  0x249c
    239c:	70 f3       	brcs	.-36     	;  0x237a
    239e:	95 9f       	mul	r25, r21
    23a0:	c1 f3       	breq	.-16     	;  0x2392
    23a2:	95 0f       	add	r25, r21
    23a4:	50 e0       	ldi	r21, 0x00	; 0
    23a6:	55 1f       	adc	r21, r21
    23a8:	62 9f       	mul	r22, r18
    23aa:	f0 01       	movw	r30, r0
    23ac:	72 9f       	mul	r23, r18
    23ae:	bb 27       	eor	r27, r27
    23b0:	f0 0d       	add	r31, r0
    23b2:	b1 1d       	adc	r27, r1
    23b4:	63 9f       	mul	r22, r19
    23b6:	aa 27       	eor	r26, r26
    23b8:	f0 0d       	add	r31, r0
    23ba:	b1 1d       	adc	r27, r1
    23bc:	aa 1f       	adc	r26, r26
    23be:	64 9f       	mul	r22, r20
    23c0:	66 27       	eor	r22, r22
    23c2:	b0 0d       	add	r27, r0
    23c4:	a1 1d       	adc	r26, r1
    23c6:	66 1f       	adc	r22, r22
    23c8:	82 9f       	mul	r24, r18
    23ca:	22 27       	eor	r18, r18
    23cc:	b0 0d       	add	r27, r0
    23ce:	a1 1d       	adc	r26, r1
    23d0:	62 1f       	adc	r22, r18
    23d2:	73 9f       	mul	r23, r19
    23d4:	b0 0d       	add	r27, r0
    23d6:	a1 1d       	adc	r26, r1
    23d8:	62 1f       	adc	r22, r18
    23da:	83 9f       	mul	r24, r19
    23dc:	a0 0d       	add	r26, r0
    23de:	61 1d       	adc	r22, r1
    23e0:	22 1f       	adc	r18, r18
    23e2:	74 9f       	mul	r23, r20
    23e4:	33 27       	eor	r19, r19
    23e6:	a0 0d       	add	r26, r0
    23e8:	61 1d       	adc	r22, r1
    23ea:	23 1f       	adc	r18, r19
    23ec:	84 9f       	mul	r24, r20
    23ee:	60 0d       	add	r22, r0
    23f0:	21 1d       	adc	r18, r1
    23f2:	82 2f       	mov	r24, r18
    23f4:	76 2f       	mov	r23, r22
    23f6:	6a 2f       	mov	r22, r26
    23f8:	11 24       	eor	r1, r1
    23fa:	9f 57       	subi	r25, 0x7F	; 127
    23fc:	50 40       	sbci	r21, 0x00	; 0
    23fe:	9a f0       	brmi	.+38     	;  0x2426
    2400:	f1 f0       	breq	.+60     	;  0x243e
    2402:	88 23       	and	r24, r24
    2404:	4a f0       	brmi	.+18     	;  0x2418
    2406:	ee 0f       	add	r30, r30
    2408:	ff 1f       	adc	r31, r31
    240a:	bb 1f       	adc	r27, r27
    240c:	66 1f       	adc	r22, r22
    240e:	77 1f       	adc	r23, r23
    2410:	88 1f       	adc	r24, r24
    2412:	91 50       	subi	r25, 0x01	; 1
    2414:	50 40       	sbci	r21, 0x00	; 0
    2416:	a9 f7       	brne	.-22     	;  0x2402
    2418:	9e 3f       	cpi	r25, 0xFE	; 254
    241a:	51 05       	cpc	r21, r1
    241c:	80 f0       	brcs	.+32     	;  0x243e
    241e:	0c 94 26 12 	jmp	0x244c	;  0x244c
    2422:	0c 94 71 12 	jmp	0x24e2	;  0x24e2
    2426:	5f 3f       	cpi	r21, 0xFF	; 255
    2428:	e4 f3       	brlt	.-8      	;  0x2422
    242a:	98 3e       	cpi	r25, 0xE8	; 232
    242c:	d4 f3       	brlt	.-12     	;  0x2422
    242e:	86 95       	lsr	r24
    2430:	77 95       	ror	r23
    2432:	67 95       	ror	r22
    2434:	b7 95       	ror	r27
    2436:	f7 95       	ror	r31
    2438:	e7 95       	ror	r30
    243a:	9f 5f       	subi	r25, 0xFF	; 255
    243c:	c1 f7       	brne	.-16     	;  0x242e
    243e:	fe 2b       	or	r31, r30
    2440:	88 0f       	add	r24, r24
    2442:	91 1d       	adc	r25, r1
    2444:	96 95       	lsr	r25
    2446:	87 95       	ror	r24
    2448:	97 f9       	bld	r25, 7
    244a:	08 95       	ret
    244c:	97 f9       	bld	r25, 7
    244e:	9f 67       	ori	r25, 0x7F	; 127
    2450:	80 e8       	ldi	r24, 0x80	; 128
    2452:	70 e0       	ldi	r23, 0x00	; 0
    2454:	60 e0       	ldi	r22, 0x00	; 0
    2456:	08 95       	ret
    2458:	9f ef       	ldi	r25, 0xFF	; 255
    245a:	80 ec       	ldi	r24, 0xC0	; 192
    245c:	08 95       	ret
    245e:	00 24       	eor	r0, r0
    2460:	0a 94       	dec	r0
    2462:	16 16       	cp	r1, r22
    2464:	17 06       	cpc	r1, r23
    2466:	18 06       	cpc	r1, r24
    2468:	09 06       	cpc	r0, r25
    246a:	08 95       	ret
    246c:	00 24       	eor	r0, r0
    246e:	0a 94       	dec	r0
    2470:	12 16       	cp	r1, r18
    2472:	13 06       	cpc	r1, r19
    2474:	14 06       	cpc	r1, r20
    2476:	05 06       	cpc	r0, r21
    2478:	08 95       	ret
    247a:	09 2e       	mov	r0, r25
    247c:	03 94       	inc	r0
    247e:	00 0c       	add	r0, r0
    2480:	11 f4       	brne	.+4      	;  0x2486
    2482:	88 23       	and	r24, r24
    2484:	52 f0       	brmi	.+20     	;  0x249a
    2486:	bb 0f       	add	r27, r27
    2488:	40 f4       	brcc	.+16     	;  0x249a
    248a:	bf 2b       	or	r27, r31
    248c:	11 f4       	brne	.+4      	;  0x2492
    248e:	60 ff       	sbrs	r22, 0
    2490:	04 c0       	rjmp	.+8      	;  0x249a
    2492:	6f 5f       	subi	r22, 0xFF	; 255
    2494:	7f 4f       	sbci	r23, 0xFF	; 255
    2496:	8f 4f       	sbci	r24, 0xFF	; 255
    2498:	9f 4f       	sbci	r25, 0xFF	; 255
    249a:	08 95       	ret
    249c:	57 fd       	sbrc	r21, 7
    249e:	90 58       	subi	r25, 0x80	; 128
    24a0:	44 0f       	add	r20, r20
    24a2:	55 1f       	adc	r21, r21
    24a4:	59 f0       	breq	.+22     	;  0x24bc
    24a6:	5f 3f       	cpi	r21, 0xFF	; 255
    24a8:	71 f0       	breq	.+28     	;  0x24c6
    24aa:	47 95       	ror	r20
    24ac:	88 0f       	add	r24, r24
    24ae:	97 fb       	bst	r25, 7
    24b0:	99 1f       	adc	r25, r25
    24b2:	61 f0       	breq	.+24     	;  0x24cc
    24b4:	9f 3f       	cpi	r25, 0xFF	; 255
    24b6:	79 f0       	breq	.+30     	;  0x24d6
    24b8:	87 95       	ror	r24
    24ba:	08 95       	ret
    24bc:	12 16       	cp	r1, r18
    24be:	13 06       	cpc	r1, r19
    24c0:	14 06       	cpc	r1, r20
    24c2:	55 1f       	adc	r21, r21
    24c4:	f2 cf       	rjmp	.-28     	;  0x24aa
    24c6:	46 95       	lsr	r20
    24c8:	f1 df       	rcall	.-30     	;  0x24ac
    24ca:	08 c0       	rjmp	.+16     	;  0x24dc
    24cc:	16 16       	cp	r1, r22
    24ce:	17 06       	cpc	r1, r23
    24d0:	18 06       	cpc	r1, r24
    24d2:	99 1f       	adc	r25, r25
    24d4:	f1 cf       	rjmp	.-30     	;  0x24b8
    24d6:	86 95       	lsr	r24
    24d8:	71 05       	cpc	r23, r1
    24da:	61 05       	cpc	r22, r1
    24dc:	08 94       	sec
    24de:	08 95       	ret
    24e0:	e8 94       	clt
    24e2:	bb 27       	eor	r27, r27
    24e4:	66 27       	eor	r22, r22
    24e6:	77 27       	eor	r23, r23
    24e8:	cb 01       	movw	r24, r22
    24ea:	97 f9       	bld	r25, 7
    24ec:	08 95       	ret
    24ee:	05 2e       	mov	r0, r21
    24f0:	97 fb       	bst	r25, 7
    24f2:	1e f4       	brtc	.+6      	;  0x24fa
    24f4:	00 94       	com	r0
    24f6:	0e 94 8e 12 	call	0x251c	;  0x251c
    24fa:	57 fd       	sbrc	r21, 7
    24fc:	07 d0       	rcall	.+14     	;  0x250c
    24fe:	0e 94 a9 12 	call	0x2552	;  0x2552
    2502:	07 fc       	sbrc	r0, 7
    2504:	03 d0       	rcall	.+6      	;  0x250c
    2506:	4e f4       	brtc	.+18     	;  0x251a
    2508:	0c 94 8e 12 	jmp	0x251c	;  0x251c
    250c:	50 95       	com	r21
    250e:	40 95       	com	r20
    2510:	30 95       	com	r19
    2512:	21 95       	neg	r18
    2514:	3f 4f       	sbci	r19, 0xFF	; 255
    2516:	4f 4f       	sbci	r20, 0xFF	; 255
    2518:	5f 4f       	sbci	r21, 0xFF	; 255
    251a:	08 95       	ret
    251c:	90 95       	com	r25
    251e:	80 95       	com	r24
    2520:	70 95       	com	r23
    2522:	61 95       	neg	r22
    2524:	7f 4f       	sbci	r23, 0xFF	; 255
    2526:	8f 4f       	sbci	r24, 0xFF	; 255
    2528:	9f 4f       	sbci	r25, 0xFF	; 255
    252a:	08 95       	ret
    252c:	0e 94 cb 12 	call	0x2596	;  0x2596
    2530:	a5 9f       	mul	r26, r21
    2532:	90 0d       	add	r25, r0
    2534:	b4 9f       	mul	r27, r20
    2536:	90 0d       	add	r25, r0
    2538:	a4 9f       	mul	r26, r20
    253a:	80 0d       	add	r24, r0
    253c:	91 1d       	adc	r25, r1
    253e:	11 24       	eor	r1, r1
    2540:	08 95       	ret
    2542:	b7 ff       	sbrs	r27, 7
    2544:	0c 94 96 12 	jmp	0x252c	;  0x252c
    2548:	0e 94 96 12 	call	0x252c	;  0x252c
    254c:	82 1b       	sub	r24, r18
    254e:	93 0b       	sbc	r25, r19
    2550:	08 95       	ret
    2552:	a1 e2       	ldi	r26, 0x21	; 33
    2554:	1a 2e       	mov	r1, r26
    2556:	aa 1b       	sub	r26, r26
    2558:	bb 1b       	sub	r27, r27
    255a:	fd 01       	movw	r30, r26
    255c:	0d c0       	rjmp	.+26     	;  0x2578
    255e:	aa 1f       	adc	r26, r26
    2560:	bb 1f       	adc	r27, r27
    2562:	ee 1f       	adc	r30, r30
    2564:	ff 1f       	adc	r31, r31
    2566:	a2 17       	cp	r26, r18
    2568:	b3 07       	cpc	r27, r19
    256a:	e4 07       	cpc	r30, r20
    256c:	f5 07       	cpc	r31, r21
    256e:	20 f0       	brcs	.+8      	;  0x2578
    2570:	a2 1b       	sub	r26, r18
    2572:	b3 0b       	sbc	r27, r19
    2574:	e4 0b       	sbc	r30, r20
    2576:	f5 0b       	sbc	r31, r21
    2578:	66 1f       	adc	r22, r22
    257a:	77 1f       	adc	r23, r23
    257c:	88 1f       	adc	r24, r24
    257e:	99 1f       	adc	r25, r25
    2580:	1a 94       	dec	r1
    2582:	69 f7       	brne	.-38     	;  0x255e
    2584:	60 95       	com	r22
    2586:	70 95       	com	r23
    2588:	80 95       	com	r24
    258a:	90 95       	com	r25
    258c:	9b 01       	movw	r18, r22
    258e:	ac 01       	movw	r20, r24
    2590:	bd 01       	movw	r22, r26
    2592:	cf 01       	movw	r24, r30
    2594:	08 95       	ret
    2596:	a2 9f       	mul	r26, r18
    2598:	b0 01       	movw	r22, r0
    259a:	b3 9f       	mul	r27, r19
    259c:	c0 01       	movw	r24, r0
    259e:	a3 9f       	mul	r26, r19
    25a0:	70 0d       	add	r23, r0
    25a2:	81 1d       	adc	r24, r1
    25a4:	11 24       	eor	r1, r1
    25a6:	91 1d       	adc	r25, r1
    25a8:	b2 9f       	mul	r27, r18
    25aa:	70 0d       	add	r23, r0
    25ac:	81 1d       	adc	r24, r1
    25ae:	11 24       	eor	r1, r1
    25b0:	91 1d       	adc	r25, r1
    25b2:	08 95       	ret
    25b4:	50 58       	subi	r21, 0x80	; 128
    25b6:	bb 27       	eor	r27, r27
    25b8:	aa 27       	eor	r26, r26
    25ba:	0e 94 f2 12 	call	0x25e4	;  0x25e4
    25be:	0c 94 3d 12 	jmp	0x247a	;  0x247a
    25c2:	0e 94 2f 12 	call	0x245e	;  0x245e
    25c6:	38 f0       	brcs	.+14     	;  0x25d6
    25c8:	0e 94 36 12 	call	0x246c	;  0x246c
    25cc:	20 f0       	brcs	.+8      	;  0x25d6
    25ce:	39 f4       	brne	.+14     	;  0x25de
    25d0:	9f 3f       	cpi	r25, 0xFF	; 255
    25d2:	19 f4       	brne	.+6      	;  0x25da
    25d4:	26 f4       	brtc	.+8      	;  0x25de
    25d6:	0c 94 2c 12 	jmp	0x2458	;  0x2458
    25da:	0e f4       	brtc	.+2      	;  0x25de
    25dc:	e0 95       	com	r30
    25de:	e7 fb       	bst	r30, 7
    25e0:	0c 94 26 12 	jmp	0x244c	;  0x244c
    25e4:	e9 2f       	mov	r30, r25
    25e6:	0e 94 4e 12 	call	0x249c	;  0x249c
    25ea:	58 f3       	brcs	.-42     	;  0x25c2
    25ec:	ba 17       	cp	r27, r26
    25ee:	62 07       	cpc	r22, r18
    25f0:	73 07       	cpc	r23, r19
    25f2:	84 07       	cpc	r24, r20
    25f4:	95 07       	cpc	r25, r21
    25f6:	20 f0       	brcs	.+8      	;  0x2600
    25f8:	79 f4       	brne	.+30     	;  0x2618
    25fa:	a6 f5       	brtc	.+104    	;  0x2664
    25fc:	0c 94 70 12 	jmp	0x24e0	;  0x24e0
    2600:	0e f4       	brtc	.+2      	;  0x2604
    2602:	e0 95       	com	r30
    2604:	0b 2e       	mov	r0, r27
    2606:	ba 2f       	mov	r27, r26
    2608:	a0 2d       	mov	r26, r0
    260a:	0b 01       	movw	r0, r22
    260c:	b9 01       	movw	r22, r18
    260e:	90 01       	movw	r18, r0
    2610:	0c 01       	movw	r0, r24
    2612:	ca 01       	movw	r24, r20
    2614:	a0 01       	movw	r20, r0
    2616:	11 24       	eor	r1, r1
    2618:	ff 27       	eor	r31, r31
    261a:	59 1b       	sub	r21, r25
    261c:	99 f0       	breq	.+38     	;  0x2644
    261e:	59 3f       	cpi	r21, 0xF9	; 249
    2620:	50 f4       	brcc	.+20     	;  0x2636
    2622:	50 3e       	cpi	r21, 0xE0	; 224
    2624:	68 f1       	brcs	.+90     	;  0x2680
    2626:	1a 16       	cp	r1, r26
    2628:	f0 40       	sbci	r31, 0x00	; 0
    262a:	a2 2f       	mov	r26, r18
    262c:	23 2f       	mov	r18, r19
    262e:	34 2f       	mov	r19, r20
    2630:	44 27       	eor	r20, r20
    2632:	58 5f       	subi	r21, 0xF8	; 248
    2634:	f3 cf       	rjmp	.-26     	;  0x261c
    2636:	46 95       	lsr	r20
    2638:	37 95       	ror	r19
    263a:	27 95       	ror	r18
    263c:	a7 95       	ror	r26
    263e:	f0 40       	sbci	r31, 0x00	; 0
    2640:	53 95       	inc	r21
    2642:	c9 f7       	brne	.-14     	;  0x2636
    2644:	7e f4       	brtc	.+30     	;  0x2664
    2646:	1f 16       	cp	r1, r31
    2648:	ba 0b       	sbc	r27, r26
    264a:	62 0b       	sbc	r22, r18
    264c:	73 0b       	sbc	r23, r19
    264e:	84 0b       	sbc	r24, r20
    2650:	ba f0       	brmi	.+46     	;  0x2680
    2652:	91 50       	subi	r25, 0x01	; 1
    2654:	a1 f0       	breq	.+40     	;  0x267e
    2656:	ff 0f       	add	r31, r31
    2658:	bb 1f       	adc	r27, r27
    265a:	66 1f       	adc	r22, r22
    265c:	77 1f       	adc	r23, r23
    265e:	88 1f       	adc	r24, r24
    2660:	c2 f7       	brpl	.-16     	;  0x2652
    2662:	0e c0       	rjmp	.+28     	;  0x2680
    2664:	ba 0f       	add	r27, r26
    2666:	62 1f       	adc	r22, r18
    2668:	73 1f       	adc	r23, r19
    266a:	84 1f       	adc	r24, r20
    266c:	48 f4       	brcc	.+18     	;  0x2680
    266e:	87 95       	ror	r24
    2670:	77 95       	ror	r23
    2672:	67 95       	ror	r22
    2674:	b7 95       	ror	r27
    2676:	f7 95       	ror	r31
    2678:	9e 3f       	cpi	r25, 0xFE	; 254
    267a:	08 f0       	brcs	.+2      	;  0x267e
    267c:	b0 cf       	rjmp	.-160    	;  0x25de
    267e:	93 95       	inc	r25
    2680:	88 0f       	add	r24, r24
    2682:	08 f0       	brcs	.+2      	;  0x2686
    2684:	99 27       	eor	r25, r25
    2686:	ee 0f       	add	r30, r30
    2688:	97 95       	ror	r25
    268a:	87 95       	ror	r24
    268c:	08 95       	ret
    268e:	0e 94 2f 12 	call	0x245e	;  0x245e
    2692:	60 f0       	brcs	.+24     	;  0x26ac
    2694:	80 e8       	ldi	r24, 0x80	; 128
    2696:	91 e0       	ldi	r25, 0x01	; 1
    2698:	09 f4       	brne	.+2      	;  0x269c
    269a:	9e ef       	ldi	r25, 0xFE	; 254
    269c:	0e 94 36 12 	call	0x246c	;  0x246c
    26a0:	28 f0       	brcs	.+10     	;  0x26ac
    26a2:	40 e8       	ldi	r20, 0x80	; 128
    26a4:	51 e0       	ldi	r21, 0x01	; 1
    26a6:	71 f4       	brne	.+28     	;  0x26c4
    26a8:	5e ef       	ldi	r21, 0xFE	; 254
    26aa:	0c c0       	rjmp	.+24     	;  0x26c4
    26ac:	0c 94 2c 12 	jmp	0x2458	;  0x2458
    26b0:	0c 94 70 12 	jmp	0x24e0	;  0x24e0
    26b4:	e9 2f       	mov	r30, r25
    26b6:	e0 78       	andi	r30, 0x80	; 128
    26b8:	0e 94 4e 12 	call	0x249c	;  0x249c
    26bc:	40 f3       	brcs	.-48     	;  0x268e
    26be:	09 2e       	mov	r0, r25
    26c0:	05 2a       	or	r0, r21
    26c2:	b1 f3       	breq	.-20     	;  0x26b0
    26c4:	26 17       	cp	r18, r22
    26c6:	37 07       	cpc	r19, r23
    26c8:	48 07       	cpc	r20, r24
    26ca:	59 07       	cpc	r21, r25
    26cc:	38 f0       	brcs	.+14     	;  0x26dc
    26ce:	0e 2e       	mov	r0, r30
    26d0:	07 f8       	bld	r0, 7
    26d2:	e0 25       	eor	r30, r0
    26d4:	69 f0       	breq	.+26     	;  0x26f0
    26d6:	e0 25       	eor	r30, r0
    26d8:	e0 64       	ori	r30, 0x40	; 64
    26da:	0a c0       	rjmp	.+20     	;  0x26f0
    26dc:	ef 63       	ori	r30, 0x3F	; 63
    26de:	07 f8       	bld	r0, 7
    26e0:	00 94       	com	r0
    26e2:	07 fa       	bst	r0, 7
    26e4:	db 01       	movw	r26, r22
    26e6:	b9 01       	movw	r22, r18
    26e8:	9d 01       	movw	r18, r26
    26ea:	dc 01       	movw	r26, r24
    26ec:	ca 01       	movw	r24, r20
    26ee:	ad 01       	movw	r20, r26
    26f0:	ef 93       	push	r30
    26f2:	0e 94 d5 13 	call	0x27aa	;  0x27aa
    26f6:	0e 94 3d 12 	call	0x247a	;  0x247a
    26fa:	0e 94 8a 13 	call	0x2714	;  0x2714
    26fe:	5f 91       	pop	r21
    2700:	55 23       	and	r21, r21
    2702:	39 f0       	breq	.+14     	;  0x2712
    2704:	2b ed       	ldi	r18, 0xDB	; 219
    2706:	3f e0       	ldi	r19, 0x0F	; 15
    2708:	49 e4       	ldi	r20, 0x49	; 73
    270a:	50 fd       	sbrc	r21, 0
    270c:	49 ec       	ldi	r20, 0xC9	; 201
    270e:	0c 94 db 12 	jmp	0x25b6	;  0x25b6
    2712:	08 95       	ret
    2714:	df 93       	push	r29
    2716:	dd 27       	eor	r29, r29
    2718:	b9 2f       	mov	r27, r25
    271a:	bf 77       	andi	r27, 0x7F	; 127
    271c:	40 e8       	ldi	r20, 0x80	; 128
    271e:	5f e3       	ldi	r21, 0x3F	; 63
    2720:	16 16       	cp	r1, r22
    2722:	17 06       	cpc	r1, r23
    2724:	48 07       	cpc	r20, r24
    2726:	5b 07       	cpc	r21, r27
    2728:	18 f4       	brcc	.+6      	;  0x2730
    272a:	d9 2f       	mov	r29, r25
    272c:	0e 94 d1 14 	call	0x29a2	;  0x29a2
    2730:	9f 93       	push	r25
    2732:	8f 93       	push	r24
    2734:	7f 93       	push	r23
    2736:	6f 93       	push	r22
    2738:	0e 94 e1 14 	call	0x29c2	;  0x29c2
    273c:	e4 ee       	ldi	r30, 0xE4	; 228
    273e:	f0 e0       	ldi	r31, 0x00	; 0
    2740:	0e 94 66 14 	call	0x28cc	;  0x28cc
    2744:	0e 94 3d 12 	call	0x247a	;  0x247a
    2748:	2f 91       	pop	r18
    274a:	3f 91       	pop	r19
    274c:	4f 91       	pop	r20
    274e:	5f 91       	pop	r21
    2750:	0e 94 cc 11 	call	0x2398	;  0x2398
    2754:	dd 23       	and	r29, r29
    2756:	51 f0       	breq	.+20     	;  0x276c
    2758:	90 58       	subi	r25, 0x80	; 128
    275a:	a2 ea       	ldi	r26, 0xA2	; 162
    275c:	2a ed       	ldi	r18, 0xDA	; 218
    275e:	3f e0       	ldi	r19, 0x0F	; 15
    2760:	49 ec       	ldi	r20, 0xC9	; 201
    2762:	5f e3       	ldi	r21, 0x3F	; 63
    2764:	d0 78       	andi	r29, 0x80	; 128
    2766:	5d 27       	eor	r21, r29
    2768:	0e 94 f2 12 	call	0x25e4	;  0x25e4
    276c:	df 91       	pop	r29
    276e:	0c 94 3d 12 	jmp	0x247a	;  0x247a
    2772:	0e 94 8f 14 	call	0x291e	;  0x291e
    2776:	e3 95       	inc	r30
    2778:	0c 94 b8 14 	jmp	0x2970	;  0x2970
    277c:	0e 94 d2 13 	call	0x27a4	;  0x27a4
    2780:	0c 94 3d 12 	jmp	0x247a	;  0x247a
    2784:	0e 94 36 12 	call	0x246c	;  0x246c
    2788:	58 f0       	brcs	.+22     	;  0x27a0
    278a:	0e 94 2f 12 	call	0x245e	;  0x245e
    278e:	40 f0       	brcs	.+16     	;  0x27a0
    2790:	29 f4       	brne	.+10     	;  0x279c
    2792:	5f 3f       	cpi	r21, 0xFF	; 255
    2794:	29 f0       	breq	.+10     	;  0x27a0
    2796:	0c 94 26 12 	jmp	0x244c	;  0x244c
    279a:	51 11       	cpse	r21, r1
    279c:	0c 94 71 12 	jmp	0x24e2	;  0x24e2
    27a0:	0c 94 2c 12 	jmp	0x2458	;  0x2458
    27a4:	0e 94 4e 12 	call	0x249c	;  0x249c
    27a8:	68 f3       	brcs	.-38     	;  0x2784
    27aa:	99 23       	and	r25, r25
    27ac:	b1 f3       	breq	.-20     	;  0x279a
    27ae:	55 23       	and	r21, r21
    27b0:	91 f3       	breq	.-28     	;  0x2796
    27b2:	95 1b       	sub	r25, r21
    27b4:	55 0b       	sbc	r21, r21
    27b6:	bb 27       	eor	r27, r27
    27b8:	aa 27       	eor	r26, r26
    27ba:	62 17       	cp	r22, r18
    27bc:	73 07       	cpc	r23, r19
    27be:	84 07       	cpc	r24, r20
    27c0:	38 f0       	brcs	.+14     	;  0x27d0
    27c2:	9f 5f       	subi	r25, 0xFF	; 255
    27c4:	5f 4f       	sbci	r21, 0xFF	; 255
    27c6:	22 0f       	add	r18, r18
    27c8:	33 1f       	adc	r19, r19
    27ca:	44 1f       	adc	r20, r20
    27cc:	aa 1f       	adc	r26, r26
    27ce:	a9 f3       	breq	.-22     	;  0x27ba
    27d0:	35 d0       	rcall	.+106    	;  0x283c
    27d2:	0e 2e       	mov	r0, r30
    27d4:	3a f0       	brmi	.+14     	;  0x27e4
    27d6:	e0 e8       	ldi	r30, 0x80	; 128
    27d8:	32 d0       	rcall	.+100    	;  0x283e
    27da:	91 50       	subi	r25, 0x01	; 1
    27dc:	50 40       	sbci	r21, 0x00	; 0
    27de:	e6 95       	lsr	r30
    27e0:	00 1c       	adc	r0, r0
    27e2:	ca f7       	brpl	.-14     	;  0x27d6
    27e4:	2b d0       	rcall	.+86     	;  0x283c
    27e6:	fe 2f       	mov	r31, r30
    27e8:	29 d0       	rcall	.+82     	;  0x283c
    27ea:	66 0f       	add	r22, r22
    27ec:	77 1f       	adc	r23, r23
    27ee:	88 1f       	adc	r24, r24
    27f0:	bb 1f       	adc	r27, r27
    27f2:	26 17       	cp	r18, r22
    27f4:	37 07       	cpc	r19, r23
    27f6:	48 07       	cpc	r20, r24
    27f8:	ab 07       	cpc	r26, r27
    27fa:	b0 e8       	ldi	r27, 0x80	; 128
    27fc:	09 f0       	breq	.+2      	;  0x2800
    27fe:	bb 0b       	sbc	r27, r27
    2800:	80 2d       	mov	r24, r0
    2802:	bf 01       	movw	r22, r30
    2804:	ff 27       	eor	r31, r31
    2806:	93 58       	subi	r25, 0x83	; 131
    2808:	5f 4f       	sbci	r21, 0xFF	; 255
    280a:	3a f0       	brmi	.+14     	;  0x281a
    280c:	9e 3f       	cpi	r25, 0xFE	; 254
    280e:	51 05       	cpc	r21, r1
    2810:	78 f0       	brcs	.+30     	;  0x2830
    2812:	0c 94 26 12 	jmp	0x244c	;  0x244c
    2816:	0c 94 71 12 	jmp	0x24e2	;  0x24e2
    281a:	5f 3f       	cpi	r21, 0xFF	; 255
    281c:	e4 f3       	brlt	.-8      	;  0x2816
    281e:	98 3e       	cpi	r25, 0xE8	; 232
    2820:	d4 f3       	brlt	.-12     	;  0x2816
    2822:	86 95       	lsr	r24
    2824:	77 95       	ror	r23
    2826:	67 95       	ror	r22
    2828:	b7 95       	ror	r27
    282a:	f7 95       	ror	r31
    282c:	9f 5f       	subi	r25, 0xFF	; 255
    282e:	c9 f7       	brne	.-14     	;  0x2822
    2830:	88 0f       	add	r24, r24
    2832:	91 1d       	adc	r25, r1
    2834:	96 95       	lsr	r25
    2836:	87 95       	ror	r24
    2838:	97 f9       	bld	r25, 7
    283a:	08 95       	ret
    283c:	e1 e0       	ldi	r30, 0x01	; 1
    283e:	66 0f       	add	r22, r22
    2840:	77 1f       	adc	r23, r23
    2842:	88 1f       	adc	r24, r24
    2844:	bb 1f       	adc	r27, r27
    2846:	62 17       	cp	r22, r18
    2848:	73 07       	cpc	r23, r19
    284a:	84 07       	cpc	r24, r20
    284c:	ba 07       	cpc	r27, r26
    284e:	20 f0       	brcs	.+8      	;  0x2858
    2850:	62 1b       	sub	r22, r18
    2852:	73 0b       	sbc	r23, r19
    2854:	84 0b       	sbc	r24, r20
    2856:	ba 0b       	sbc	r27, r26
    2858:	ee 1f       	adc	r30, r30
    285a:	88 f7       	brcc	.-30     	;  0x283e
    285c:	e0 95       	com	r30
    285e:	08 95       	ret
    2860:	0e 94 37 14 	call	0x286e	;  0x286e
    2864:	68 94       	set
    2866:	b1 11       	cpse	r27, r1
    2868:	0c 94 71 12 	jmp	0x24e2	;  0x24e2
    286c:	08 95       	ret
    286e:	0e 94 56 12 	call	0x24ac	;  0x24ac
    2872:	88 f0       	brcs	.+34     	;  0x2896
    2874:	9f 57       	subi	r25, 0x7F	; 127
    2876:	98 f0       	brcs	.+38     	;  0x289e
    2878:	b9 2f       	mov	r27, r25
    287a:	99 27       	eor	r25, r25
    287c:	b7 51       	subi	r27, 0x17	; 23
    287e:	b0 f0       	brcs	.+44     	;  0x28ac
    2880:	e1 f0       	breq	.+56     	;  0x28ba
    2882:	66 0f       	add	r22, r22
    2884:	77 1f       	adc	r23, r23
    2886:	88 1f       	adc	r24, r24
    2888:	99 1f       	adc	r25, r25
    288a:	1a f0       	brmi	.+6      	;  0x2892
    288c:	ba 95       	dec	r27
    288e:	c9 f7       	brne	.-14     	;  0x2882
    2890:	14 c0       	rjmp	.+40     	;  0x28ba
    2892:	b1 30       	cpi	r27, 0x01	; 1
    2894:	91 f0       	breq	.+36     	;  0x28ba
    2896:	0e 94 70 12 	call	0x24e0	;  0x24e0
    289a:	b1 e0       	ldi	r27, 0x01	; 1
    289c:	08 95       	ret
    289e:	0c 94 70 12 	jmp	0x24e0	;  0x24e0
    28a2:	67 2f       	mov	r22, r23
    28a4:	78 2f       	mov	r23, r24
    28a6:	88 27       	eor	r24, r24
    28a8:	b8 5f       	subi	r27, 0xF8	; 248
    28aa:	39 f0       	breq	.+14     	;  0x28ba
    28ac:	b9 3f       	cpi	r27, 0xF9	; 249
    28ae:	cc f3       	brlt	.-14     	;  0x28a2
    28b0:	86 95       	lsr	r24
    28b2:	77 95       	ror	r23
    28b4:	67 95       	ror	r22
    28b6:	b3 95       	inc	r27
    28b8:	d9 f7       	brne	.-10     	;  0x28b0
    28ba:	3e f4       	brtc	.+14     	;  0x28ca
    28bc:	90 95       	com	r25
    28be:	80 95       	com	r24
    28c0:	70 95       	com	r23
    28c2:	61 95       	neg	r22
    28c4:	7f 4f       	sbci	r23, 0xFF	; 255
    28c6:	8f 4f       	sbci	r24, 0xFF	; 255
    28c8:	9f 4f       	sbci	r25, 0xFF	; 255
    28ca:	08 95       	ret
    28cc:	df 93       	push	r29
    28ce:	cf 93       	push	r28
    28d0:	1f 93       	push	r17
    28d2:	0f 93       	push	r16
    28d4:	ff 92       	push	r15
    28d6:	ef 92       	push	r14
    28d8:	df 92       	push	r13
    28da:	7b 01       	movw	r14, r22
    28dc:	8c 01       	movw	r16, r24
    28de:	68 94       	set
    28e0:	06 c0       	rjmp	.+12     	;  0x28ee
    28e2:	da 2e       	mov	r13, r26
    28e4:	ef 01       	movw	r28, r30
    28e6:	0e 94 cc 11 	call	0x2398	;  0x2398
    28ea:	fe 01       	movw	r30, r28
    28ec:	e8 94       	clt
    28ee:	a5 91       	lpm	r26, Z+
    28f0:	25 91       	lpm	r18, Z+
    28f2:	35 91       	lpm	r19, Z+
    28f4:	45 91       	lpm	r20, Z+
    28f6:	55 91       	lpm	r21, Z+
    28f8:	a6 f3       	brts	.-24     	;  0x28e2
    28fa:	ef 01       	movw	r28, r30
    28fc:	0e 94 f2 12 	call	0x25e4	;  0x25e4
    2900:	fe 01       	movw	r30, r28
    2902:	97 01       	movw	r18, r14
    2904:	a8 01       	movw	r20, r16
    2906:	da 94       	dec	r13
    2908:	69 f7       	brne	.-38     	;  0x28e4
    290a:	df 90       	pop	r13
    290c:	ef 90       	pop	r14
    290e:	ff 90       	pop	r15
    2910:	0f 91       	pop	r16
    2912:	1f 91       	pop	r17
    2914:	cf 91       	pop	r28
    2916:	df 91       	pop	r29
    2918:	08 95       	ret
    291a:	0c 94 2c 12 	jmp	0x2458	;  0x2458
    291e:	0e 94 56 12 	call	0x24ac	;  0x24ac
    2922:	d8 f3       	brcs	.-10     	;  0x291a
    2924:	e8 94       	clt
    2926:	e0 e0       	ldi	r30, 0x00	; 0
    2928:	bb 27       	eor	r27, r27
    292a:	9f 57       	subi	r25, 0x7F	; 127
    292c:	f0 f0       	brcs	.+60     	;  0x296a
    292e:	2a ed       	ldi	r18, 0xDA	; 218
    2930:	3f e0       	ldi	r19, 0x0F	; 15
    2932:	49 ec       	ldi	r20, 0xC9	; 201
    2934:	06 c0       	rjmp	.+12     	;  0x2942
    2936:	ee 0f       	add	r30, r30
    2938:	bb 0f       	add	r27, r27
    293a:	66 1f       	adc	r22, r22
    293c:	77 1f       	adc	r23, r23
    293e:	88 1f       	adc	r24, r24
    2940:	28 f0       	brcs	.+10     	;  0x294c
    2942:	b2 3a       	cpi	r27, 0xA2	; 162
    2944:	62 07       	cpc	r22, r18
    2946:	73 07       	cpc	r23, r19
    2948:	84 07       	cpc	r24, r20
    294a:	28 f0       	brcs	.+10     	;  0x2956
    294c:	b2 5a       	subi	r27, 0xA2	; 162
    294e:	62 0b       	sbc	r22, r18
    2950:	73 0b       	sbc	r23, r19
    2952:	84 0b       	sbc	r24, r20
    2954:	e3 95       	inc	r30
    2956:	9a 95       	dec	r25
    2958:	72 f7       	brpl	.-36     	;  0x2936
    295a:	80 38       	cpi	r24, 0x80	; 128
    295c:	30 f4       	brcc	.+12     	;  0x296a
    295e:	9a 95       	dec	r25
    2960:	bb 0f       	add	r27, r27
    2962:	66 1f       	adc	r22, r22
    2964:	77 1f       	adc	r23, r23
    2966:	88 1f       	adc	r24, r24
    2968:	d2 f7       	brpl	.-12     	;  0x295e
    296a:	90 48       	sbci	r25, 0x80	; 128
    296c:	0c 94 ec 14 	jmp	0x29d8	;  0x29d8
    2970:	ef 93       	push	r30
    2972:	e0 ff       	sbrs	r30, 0
    2974:	07 c0       	rjmp	.+14     	;  0x2984
    2976:	a2 ea       	ldi	r26, 0xA2	; 162
    2978:	2a ed       	ldi	r18, 0xDA	; 218
    297a:	3f e0       	ldi	r19, 0x0F	; 15
    297c:	49 ec       	ldi	r20, 0xC9	; 201
    297e:	5f eb       	ldi	r21, 0xBF	; 191
    2980:	0e 94 f2 12 	call	0x25e4	;  0x25e4
    2984:	0e 94 3d 12 	call	0x247a	;  0x247a
    2988:	0f 90       	pop	r0
    298a:	03 94       	inc	r0
    298c:	01 fc       	sbrc	r0, 1
    298e:	90 58       	subi	r25, 0x80	; 128
    2990:	e1 e1       	ldi	r30, 0x11	; 17
    2992:	f1 e0       	ldi	r31, 0x01	; 1
    2994:	0c 94 f8 14 	jmp	0x29f0	;  0x29f0
    2998:	0e 94 95 11 	call	0x232a	;  0x232a
    299c:	08 f4       	brcc	.+2      	;  0x29a0
    299e:	8f ef       	ldi	r24, 0xFF	; 255
    29a0:	08 95       	ret
    29a2:	9b 01       	movw	r18, r22
    29a4:	ac 01       	movw	r20, r24
    29a6:	60 e0       	ldi	r22, 0x00	; 0
    29a8:	70 e0       	ldi	r23, 0x00	; 0
    29aa:	80 e8       	ldi	r24, 0x80	; 128
    29ac:	9f e3       	ldi	r25, 0x3F	; 63
    29ae:	0c 94 be 13 	jmp	0x277c	;  0x277c
    29b2:	9f 93       	push	r25
    29b4:	0e 94 8f 14 	call	0x291e	;  0x291e
    29b8:	0f 90       	pop	r0
    29ba:	07 fc       	sbrc	r0, 7
    29bc:	ee 5f       	subi	r30, 0xFE	; 254
    29be:	0c 94 b8 14 	jmp	0x2970	;  0x2970
    29c2:	9b 01       	movw	r18, r22
    29c4:	ac 01       	movw	r20, r24
    29c6:	0c 94 b9 11 	jmp	0x2372	;  0x2372
    29ca:	0e 94 95 11 	call	0x232a	;  0x232a
    29ce:	88 0b       	sbc	r24, r24
    29d0:	99 0b       	sbc	r25, r25
    29d2:	08 95       	ret
    29d4:	9f 3f       	cpi	r25, 0xFF	; 255
    29d6:	31 f0       	breq	.+12     	;  0x29e4
    29d8:	91 50       	subi	r25, 0x01	; 1
    29da:	20 f4       	brcc	.+8      	;  0x29e4
    29dc:	87 95       	ror	r24
    29de:	77 95       	ror	r23
    29e0:	67 95       	ror	r22
    29e2:	b7 95       	ror	r27
    29e4:	88 0f       	add	r24, r24
    29e6:	91 1d       	adc	r25, r1
    29e8:	96 95       	lsr	r25
    29ea:	87 95       	ror	r24
    29ec:	97 f9       	bld	r25, 7
    29ee:	08 95       	ret
    29f0:	9f 93       	push	r25
    29f2:	8f 93       	push	r24
    29f4:	7f 93       	push	r23
    29f6:	6f 93       	push	r22
    29f8:	ff 93       	push	r31
    29fa:	ef 93       	push	r30
    29fc:	9b 01       	movw	r18, r22
    29fe:	ac 01       	movw	r20, r24
    2a00:	0e 94 b9 11 	call	0x2372	;  0x2372
    2a04:	ef 91       	pop	r30
    2a06:	ff 91       	pop	r31
    2a08:	0e 94 66 14 	call	0x28cc	;  0x28cc
    2a0c:	2f 91       	pop	r18
    2a0e:	3f 91       	pop	r19
    2a10:	4f 91       	pop	r20
    2a12:	5f 91       	pop	r21
    2a14:	0c 94 b9 11 	jmp	0x2372	;  0x2372
    2a18:	99 1b       	sub	r25, r25
    2a1a:	79 e0       	ldi	r23, 0x09	; 9
    2a1c:	04 c0       	rjmp	.+8      	;  0x2a26
    2a1e:	99 1f       	adc	r25, r25
    2a20:	96 17       	cp	r25, r22
    2a22:	08 f0       	brcs	.+2      	;  0x2a26
    2a24:	96 1b       	sub	r25, r22
    2a26:	88 1f       	adc	r24, r24
    2a28:	7a 95       	dec	r23
    2a2a:	c9 f7       	brne	.-14     	;  0x2a1e
    2a2c:	80 95       	com	r24
    2a2e:	08 95       	ret
    2a30:	ee 0f       	add	r30, r30
    2a32:	ff 1f       	adc	r31, r31
    2a34:	88 1f       	adc	r24, r24
    2a36:	8b bf       	out	0x3b, r24	; 59
    2a38:	07 90       	elpm	r0, Z+
    2a3a:	f6 91       	elpm	r31, Z
    2a3c:	e0 2d       	mov	r30, r0
    2a3e:	19 94       	eijmp
    2a40:	68 94       	set
    2a42:	01 c0       	rjmp	.+2      	;  0x2a46
    2a44:	e8 94       	clt
    2a46:	8f 92       	push	r8
    2a48:	9f 92       	push	r9
    2a4a:	cf 93       	push	r28
    2a4c:	df 93       	push	r29
    2a4e:	0e 94 2e 15 	call	0x2a5c	;  0x2a5c
    2a52:	df 91       	pop	r29
    2a54:	cf 91       	pop	r28
    2a56:	9f 90       	pop	r9
    2a58:	8f 90       	pop	r8
    2a5a:	08 95       	ret
    2a5c:	88 24       	eor	r8, r8
    2a5e:	99 24       	eor	r9, r9
    2a60:	f4 01       	movw	r30, r8
    2a62:	e4 01       	movw	r28, r8
    2a64:	b0 e4       	ldi	r27, 0x40	; 64
    2a66:	9f 93       	push	r25
    2a68:	aa 27       	eor	r26, r26
    2a6a:	9a 15       	cp	r25, r10
    2a6c:	8b 04       	cpc	r8, r11
    2a6e:	9c 04       	cpc	r9, r12
    2a70:	ed 05       	cpc	r30, r13
    2a72:	fe 05       	cpc	r31, r14
    2a74:	cf 05       	cpc	r28, r15
    2a76:	d0 07       	cpc	r29, r16
    2a78:	a1 07       	cpc	r26, r17
    2a7a:	98 f4       	brcc	.+38     	;  0x2aa2
    2a7c:	ad 2f       	mov	r26, r29
    2a7e:	dc 2f       	mov	r29, r28
    2a80:	cf 2f       	mov	r28, r31
    2a82:	fe 2f       	mov	r31, r30
    2a84:	e9 2d       	mov	r30, r9
    2a86:	98 2c       	mov	r9, r8
    2a88:	89 2e       	mov	r8, r25
    2a8a:	98 2f       	mov	r25, r24
    2a8c:	87 2f       	mov	r24, r23
    2a8e:	76 2f       	mov	r23, r22
    2a90:	65 2f       	mov	r22, r21
    2a92:	54 2f       	mov	r21, r20
    2a94:	43 2f       	mov	r20, r19
    2a96:	32 2f       	mov	r19, r18
    2a98:	22 27       	eor	r18, r18
    2a9a:	b8 50       	subi	r27, 0x08	; 8
    2a9c:	31 f7       	brne	.-52     	;  0x2a6a
    2a9e:	bf 91       	pop	r27
    2aa0:	27 c0       	rjmp	.+78     	;  0x2af0
    2aa2:	1b 2e       	mov	r1, r27
    2aa4:	bf 91       	pop	r27
    2aa6:	bb 27       	eor	r27, r27
    2aa8:	22 0f       	add	r18, r18
    2aaa:	33 1f       	adc	r19, r19
    2aac:	44 1f       	adc	r20, r20
    2aae:	55 1f       	adc	r21, r21
    2ab0:	66 1f       	adc	r22, r22
    2ab2:	77 1f       	adc	r23, r23
    2ab4:	88 1f       	adc	r24, r24
    2ab6:	99 1f       	adc	r25, r25
    2ab8:	88 1c       	adc	r8, r8
    2aba:	99 1c       	adc	r9, r9
    2abc:	ee 1f       	adc	r30, r30
    2abe:	ff 1f       	adc	r31, r31
    2ac0:	cc 1f       	adc	r28, r28
    2ac2:	dd 1f       	adc	r29, r29
    2ac4:	aa 1f       	adc	r26, r26
    2ac6:	bb 1f       	adc	r27, r27
    2ac8:	8a 14       	cp	r8, r10
    2aca:	9b 04       	cpc	r9, r11
    2acc:	ec 05       	cpc	r30, r12
    2ace:	fd 05       	cpc	r31, r13
    2ad0:	ce 05       	cpc	r28, r14
    2ad2:	df 05       	cpc	r29, r15
    2ad4:	a0 07       	cpc	r26, r16
    2ad6:	b1 07       	cpc	r27, r17
    2ad8:	48 f0       	brcs	.+18     	;  0x2aec
    2ada:	8a 18       	sub	r8, r10
    2adc:	9b 08       	sbc	r9, r11
    2ade:	ec 09       	sbc	r30, r12
    2ae0:	fd 09       	sbc	r31, r13
    2ae2:	ce 09       	sbc	r28, r14
    2ae4:	df 09       	sbc	r29, r15
    2ae6:	a0 0b       	sbc	r26, r16
    2ae8:	b1 0b       	sbc	r27, r17
    2aea:	21 60       	ori	r18, 0x01	; 1
    2aec:	1a 94       	dec	r1
    2aee:	e1 f6       	brne	.-72     	;  0x2aa8
    2af0:	2e f4       	brtc	.+10     	;  0x2afc
    2af2:	94 01       	movw	r18, r8
    2af4:	af 01       	movw	r20, r30
    2af6:	be 01       	movw	r22, r28
    2af8:	cd 01       	movw	r24, r26
    2afa:	00 0c       	add	r0, r0
    2afc:	08 95       	ret
    2afe:	00 2e       	mov	r0, r16
    2b00:	08 30       	cpi	r16, 0x08	; 8
    2b02:	90 f0       	brcs	.+36     	;  0x2b28
    2b04:	98 2f       	mov	r25, r24
    2b06:	87 2f       	mov	r24, r23
    2b08:	76 2f       	mov	r23, r22
    2b0a:	65 2f       	mov	r22, r21
    2b0c:	54 2f       	mov	r21, r20
    2b0e:	43 2f       	mov	r20, r19
    2b10:	32 2f       	mov	r19, r18
    2b12:	22 27       	eor	r18, r18
    2b14:	08 50       	subi	r16, 0x08	; 8
    2b16:	f4 cf       	rjmp	.-24     	;  0x2b00
    2b18:	22 0f       	add	r18, r18
    2b1a:	33 1f       	adc	r19, r19
    2b1c:	44 1f       	adc	r20, r20
    2b1e:	55 1f       	adc	r21, r21
    2b20:	66 1f       	adc	r22, r22
    2b22:	77 1f       	adc	r23, r23
    2b24:	88 1f       	adc	r24, r24
    2b26:	99 1f       	adc	r25, r25
    2b28:	0a 95       	dec	r16
    2b2a:	b2 f7       	brpl	.-20     	;  0x2b18
    2b2c:	00 2d       	mov	r16, r0
    2b2e:	08 95       	ret
    2b30:	97 fd       	sbrc	r25, 7
    2b32:	10 94       	com	r1
    2b34:	00 2e       	mov	r0, r16
    2b36:	08 30       	cpi	r16, 0x08	; 8
    2b38:	98 f0       	brcs	.+38     	;  0x2b60
    2b3a:	08 50       	subi	r16, 0x08	; 8
    2b3c:	23 2f       	mov	r18, r19
    2b3e:	34 2f       	mov	r19, r20
    2b40:	45 2f       	mov	r20, r21
    2b42:	56 2f       	mov	r21, r22
    2b44:	67 2f       	mov	r22, r23
    2b46:	78 2f       	mov	r23, r24
    2b48:	89 2f       	mov	r24, r25
    2b4a:	91 2d       	mov	r25, r1
    2b4c:	f4 cf       	rjmp	.-24     	;  0x2b36
    2b4e:	15 94       	asr	r1
    2b50:	97 95       	ror	r25
    2b52:	87 95       	ror	r24
    2b54:	77 95       	ror	r23
    2b56:	67 95       	ror	r22
    2b58:	57 95       	ror	r21
    2b5a:	47 95       	ror	r20
    2b5c:	37 95       	ror	r19
    2b5e:	27 95       	ror	r18
    2b60:	0a 95       	dec	r16
    2b62:	aa f7       	brpl	.-22     	;  0x2b4e
    2b64:	11 24       	eor	r1, r1
    2b66:	00 2d       	mov	r16, r0
    2b68:	08 95       	ret
    2b6a:	f8 94       	cli
    2b6c:	ff cf       	rjmp	.-2      	;  0x2b6c
    2b6e:	d9 02       	muls	r29, r25
    2b70:	d9 02       	muls	r29, r25
    2b72:	d9 02       	muls	r29, r25
    2b74:	d9 02       	muls	r29, r25
    2b76:	d9 02       	muls	r29, r25
    2b78:	d9 02       	muls	r29, r25
    2b7a:	d9 02       	muls	r29, r25
    2b7c:	d9 02       	muls	r29, r25
    2b7e:	01 00       	.word	0x0001	; ????
    2b80:	00 00       	nop
    2b82:	00 00       	nop
    2b84:	00 00       	nop
    2b86:	7a 03       	fmul	r23, r18
    2b88:	da 02       	muls	r29, r26
    2b8a:	07 03       	mulsu	r16, r23
    2b8c:	c7 03       	fmuls	r20, r23
    2b8e:	38 03       	fmul	r19, r16
    2b90:	16 03       	mulsu	r17, r22
    2b92:	2a 03       	fmul	r18, r18
    2b94:	00 00       	nop
    2b96:	00 00       	nop
    2b98:	c7 04       	cpc	r12, r7
    2b9a:	8c 04       	cpc	r8, r12
    2b9c:	dd 04       	cpc	r13, r13
    2b9e:	3c 04       	cpc	r3, r12
    2ba0:	7e 04       	cpc	r7, r14
    2ba2:	63 04       	cpc	r6, r3
    2ba4:	3d 04       	cpc	r3, r13
    2ba6:	6e 61       	ori	r22, 0x1E	; 30
    2ba8:	6e 00       	.word	0x006e	; ????
    2baa:	69 6e       	ori	r22, 0xE9	; 233
    2bac:	66 00       	.word	0x0066	; ????
    2bae:	6f 76       	andi	r22, 0x6F	; 111
    2bb0:	66 00       	.word	0x0066	; ????
    2bb2:	4f 62       	ori	r20, 0x2F	; 47
    2bb4:	73 74       	andi	r23, 0x43	; 67
    2bb6:	61 63       	ori	r22, 0x31	; 49
    2bb8:	6c 65       	ori	r22, 0x5C	; 92
    2bba:	20 64       	ori	r18, 0x40	; 64
    2bbc:	65 74       	andi	r22, 0x45	; 69
    2bbe:	65 63       	ori	r22, 0x35	; 53
    2bc0:	74 65       	ori	r23, 0x54	; 84
    2bc2:	64 21       	and	r22, r4
    2bc4:	20 41       	sbci	r18, 0x10	; 16
    2bc6:	64 6a       	ori	r22, 0xA4	; 164
    2bc8:	75 73       	andi	r23, 0x35	; 53
    2bca:	74 69       	ori	r23, 0x94	; 148
    2bcc:	6e 67       	ori	r22, 0x7E	; 126
    2bce:	20 63       	ori	r18, 0x30	; 48
    2bd0:	6f 75       	andi	r22, 0x5F	; 95
    2bd2:	72 73       	andi	r23, 0x32	; 50
    2bd4:	65 2e       	mov	r6, r21
    2bd6:	00 0d       	add	r16, r0
    2bd8:	0a 00       	.word	0x000a	; ????
    2bda:	57 69       	ori	r21, 0x97	; 151
    2bdc:	6e 64       	ori	r22, 0x4E	; 78
    2bde:	20 53       	subi	r18, 0x30	; 48
    2be0:	70 65       	ori	r23, 0x50	; 80
    2be2:	65 64       	ori	r22, 0x45	; 69
    2be4:	3a 20       	and	r3, r10
    2be6:	00 4c       	sbci	r16, 0xC0	; 192
    2be8:	61 74       	andi	r22, 0x41	; 65
    2bea:	69 74       	andi	r22, 0x49	; 73
    2bec:	75 64       	ori	r23, 0x45	; 69
    2bee:	65 3a       	cpi	r22, 0xA5	; 165
    2bf0:	20 00       	.word	0x0020	; ????
    2bf2:	20 4c       	sbci	r18, 0xC0	; 192
    2bf4:	6f 6e       	ori	r22, 0xEF	; 239
    2bf6:	67 69       	ori	r22, 0x97	; 151
    2bf8:	74 75       	andi	r23, 0x54	; 84
    2bfa:	64 65       	ori	r22, 0x54	; 84
    2bfc:	3a 20       	and	r3, r10
    2bfe:	00 20       	and	r0, r0
    2c00:	42 65       	ori	r20, 0x52	; 82
    2c02:	61 72       	andi	r22, 0x21	; 33
    2c04:	69 6e       	ori	r22, 0xE9	; 233
    2c06:	67 3a       	cpi	r22, 0xA7	; 167
    2c08:	20 00       	.word	0x0020	; ????
